MPASM 5.77                 THE_REAL_DEAL.ASM   12-13-2019  1:09:44         PAGE  1


LOC  OBJECT CODE     LINE SOURCE TEXT
  VALUE

                      00001 
                      00002 #Include         p18f46k22.inc
                      00001         LIST
                      00002 
                      00003 ;==========================================================================
                      00004 ; Build date : Nov 22 2017
                      00005 ;  MPASM PIC18F46K22 processor include
                      00006 ; 
                      00007 ;  (c) Copyright 1999-2017 Microchip Technology, All rights reserved
                      00008 ;==========================================================================
                      00009 
                      02799         LIST
                      00003     
                      00004     CBlock  0x00 ; -----  User RAM.Data in Access Bank 
  00000000            00005 Count2, Count1, Count0   ; counter for Delay
                      00006         ; ------  for  LCD_p18LCD_Subs.asm  routines
  00000003            00007 COUNTER         ; counter for delay loops
  00000004            00008 delay           ; amount  of  delay for delay subroutines
  00000005            00009 temp_wr         ; temporary register for LCD written data
  00000006            00010 temp_rd         ; temporary register for data read from the LCD controller
  00000007            00011 ptr_pos, ptr_count, cmd_byte    ; used by LCD routines
                      00012     EndC
                      00013 
                      00014     org         0x00
000000 EF?? F???      00015     GoTo        Main
                      00016 
000004                00017 Main:
                      00018     org         0x30
                      00019     
000030 EC?? F???      00020     call        LCDInit         ; Initialize PORTA, PORTD, and LCD Module
000034 EC?? F???      00021     call        LCDLine_1       ;move cursor to line 1
                      00022     
                      00023 ; ---------------- Wait a while = 1 x256 x256 x3 uSec = 0.1 sec
000038 0E01           00024     movLW       1
00003A 6E00           00025     movWF       Count2
00003C 6A01           00026     clrF        Count1
00003E 6A02           00027     clrF        Count0
000040                00028 WLoo    
000040 2E02           00029     decFsZ      Count0
000042 D???           00030     bra         WLoo
000044 2E01           00031     decFsZ      Count1
000046 D???           00032     bra         WLoo
000048 2E00           00033     decFsZ      Count2
00004A D???           00034     bra         WLoo    
                      00035         
                      00036 ;Displays 'HI, PRESS S2 TO'
                      00037 ;        'START MASTERMIND'
00004C                00038 ShowCode:    
                      00039     ;1ST LINE
00004C EC?? F???      00040     call        LCDLine_1
000050 0E48           00041     movLW       A'H'
000052 6E05           00042     movWF       temp_wr
000054 EC?? F???      00043     call        d_write
MPASM 5.77                 THE_REAL_DEAL.ASM   12-13-2019  1:09:44         PAGE  2


LOC  OBJECT CODE     LINE SOURCE TEXT
  VALUE

000058 0E49           00044     movLW       A'I'
00005A 6E05           00045     movWF       temp_wr
00005C EC?? F???      00046     call        d_write
000060 0E2C           00047     movLW       A','
000062 6E05           00048     movWF       temp_wr
000064 EC?? F???      00049     call        d_write
000068 0E20           00050     movLW       A' '
00006A 6E05           00051     movWF       temp_wr
00006C EC?? F???      00052     call        d_write
000070 0E50           00053     movLW       A'P'
000072 6E05           00054     movWF       temp_wr
000074 EC?? F???      00055     call        d_write
000078 0E52           00056     movLW       A'R'
00007A 6E05           00057     movWF       temp_wr
00007C EC?? F???      00058     call        d_write
000080 0E45           00059     movLW       A'E'
000082 6E05           00060     movWF       temp_wr
000084 EC?? F???      00061     call        d_write
000088 0E53           00062     movLW       A'S'
00008A 6E05           00063     movWF       temp_wr
00008C EC?? F???      00064     call        d_write
000090 0E53           00065     movLW       A'S'
000092 6E05           00066     movWF       temp_wr
000094 EC?? F???      00067     call        d_write
000098 0E20           00068     movLW       A' '
00009A 6E05           00069     movWF       temp_wr
00009C EC?? F???      00070     call        d_write
0000A0 0E53           00071     movLW       A'S'
0000A2 6E05           00072     movWF       temp_wr
0000A4 EC?? F???      00073     call        d_write
0000A8 0E32           00074     movLW       A'2'
0000AA 6E05           00075     movWF       temp_wr
0000AC EC?? F???      00076     call        d_write
0000B0 0E20           00077     movLW       A' '
0000B2 6E05           00078     movWF       temp_wr
0000B4 EC?? F???      00079     call        d_write
0000B8 0E54           00080     movLW       A'T'
0000BA 6E05           00081     movWF       temp_wr
0000BC EC?? F???      00082     call        d_write
0000C0 0E4F           00083     movLW       A'O'
0000C2 6E05           00084     movWF       temp_wr
0000C4 EC?? F???      00085     call        d_write
0000C8 0E20           00086     movLW       A' '
0000CA 6E05           00087     movWF       temp_wr
0000CC EC?? F???      00088     call        d_write
                      00089 
                      00090     ;2ND LINE
0000D0 EC?? F???      00091     call        LCDLine_2
0000D4 0E53           00092     movLW       A'S'
0000D6 6E05           00093     movWF       temp_wr
0000D8 EC?? F???      00094     call        d_write
0000DC 0E54           00095     movLW       A'T'
0000DE 6E05           00096     movWF       temp_wr
MPASM 5.77                 THE_REAL_DEAL.ASM   12-13-2019  1:09:44         PAGE  3


LOC  OBJECT CODE     LINE SOURCE TEXT
  VALUE

0000E0 EC?? F???      00097     call        d_write
0000E4 0E41           00098     movLW       A'A'
0000E6 6E05           00099     movWF       temp_wr
0000E8 EC?? F???      00100     call        d_write
0000EC 0E52           00101     movLW       A'R'
0000EE 6E05           00102     movWF       temp_wr
0000F0 EC?? F???      00103     call        d_write
0000F4 0E54           00104     movLW       A'T'
0000F6 6E05           00105     movWF       temp_wr
0000F8 EC?? F???      00106     call        d_write
0000FC 0E20           00107     movLW       A' '
0000FE 6E05           00108     movWF       temp_wr
000100 EC?? F???      00109     call        d_write
000104 0E4D           00110     movLW       A'M'
000106 6E05           00111     movWF       temp_wr
000108 EC?? F???      00112     call        d_write
00010C 0E41           00113     movLW       A'A'
00010E 6E05           00114     movWF       temp_wr
000110 EC?? F???      00115     call        d_write
000114 0E53           00116     movLW       A'S'
000116 6E05           00117     movWF       temp_wr
000118 EC?? F???      00118     call        d_write
00011C 0E54           00119     movLW       A'T'
00011E 6E05           00120     movWF       temp_wr
000120 EC?? F???      00121     call        d_write
000124 0E45           00122     movLW       A'E'
000126 6E05           00123     movWF       temp_wr
000128 EC?? F???      00124     call        d_write
00012C 0E52           00125     movLW       A'R'
00012E 6E05           00126     movWF       temp_wr
000130 EC?? F???      00127     call        d_write
000134 0E4D           00128     movLW       A'M'
000136 6E05           00129     movWF       temp_wr
000138 EC?? F???      00130     call        d_write
00013C 0E49           00131     movLW       A'I'
00013E 6E05           00132     movWF       temp_wr
000140 EC?? F???      00133     call        d_write
000144 0E4E           00134     movLW       A'N'
000146 6E05           00135     movWF       temp_wr
000148 EC?? F???      00136     call        d_write
00014C 0E44           00137     movLW       A'D'
00014E 6E05           00138     movWF       temp_wr
000150 EC?? F???      00139     call        d_write  
                      00140     
                      00141 ;*******************************************************************************
                      00142 ;Random number generator for code
                      00143 ;*******************************************************************************
                      00144 ;store a digit in a seperate file loop. 
000154 0103           00145     MOVLB 0x3
Warning[207]: Found label after column 1. (DIG1)
  00000017            00146     DIG1 EQU 0x17
Warning[207]: Found label after column 1. (DIG2)
  00000018            00147     DIG2 EQU 0x18
MPASM 5.77                 THE_REAL_DEAL.ASM   12-13-2019  1:09:44         PAGE  4


LOC  OBJECT CODE     LINE SOURCE TEXT
  VALUE

Warning[207]: Found label after column 1. (DIG3)
  00000019            00148     DIG3 EQU 0x19
Warning[207]: Found label after column 1. (DIG4)
  0000001A            00149     DIG4 EQU 0x1A
Warning[207]: Found label after column 1. (COUNT_BLACK)
  00000057            00150     COUNT_BLACK EQU 0x57    ;keep tally of black.
Warning[207]: Found label after column 1. (COUNT_WHITE)
  00000067            00151     COUNT_WHITE EQU 0x67
Warning[207]: Found label after column 1. (GENERATOR)
000156                00152  GENERATOR
000156 0E05           00153     MOVLW 5H
000158 6F17           00154     MOVWF DIG1, 1
00015A 6F18           00155     MOVWF DIG2, 1
00015C 6F19           00156     MOVWF DIG3, 1
00015E 6F1A           00157     MOVWF DIG4, 1
                      00158     
Warning[207]: Found label after column 1. (LOOP1b)
000160                00159         LOOP1b
000160 A880           00160         BTFSS PORTA, 4
000162 D???           00161         BRA WT_RELEASE1
000164 6F18           00162             MOVWF DIG2, 1
Warning[207]: Found label after column 1. (LOOP2b)
000166                00163                 LOOP2b
000166 A880           00164                 BTFSS PORTA, 4
000168 D???           00165                 BRA WT_RELEASE1
00016A 6F19           00166                 MOVWF DIG3, 1
Warning[207]: Found label after column 1. (LOOP3b)
00016C                00167                     LOOP3b
00016C A880           00168                     BTFSS PORTA, 4
00016E D???           00169                     BRA WT_RELEASE1
000170 6F1A           00170                     MOVWF DIG4, 1
Warning[207]: Found label after column 1. (LOOP4b)
000172                00171                         LOOP4b
000172 A880           00172                         BTFSS PORTA, 4
000174 D???           00173                         BRA WT_RELEASE1
000176 071A           00174                             DECF DIG4, 1, 1
000178 E1??           00175                             BNZ LOOP4b
00017A 0719           00176                     DECF DIG3, 1, 1
00017C E1??           00177                     BNZ LOOP3b
00017E 0718           00178                 DECF DIG2, 1, 1
000180 E1??           00179                 BNZ LOOP2b
000182 0717           00180             DECF DIG1, 1, 1
000184 E1??           00181             BNZ LOOP1b  
000186 EF?? F???      00182    GOTO GENERATOR
                      00183 
00018A                00184 WT_RELEASE1
00018A A880           00185    BTFSS PORTA, 4
00018C D???           00186    BRA $-2
00018E 0000           00187    NOP
                      00188    
                      00189 ;*******************************************************************************
                      00190    ;Start display at beginning. 
000190 0E02           00191     MOVLW 2H 
MPASM 5.77                 THE_REAL_DEAL.ASM   12-13-2019  1:09:44         PAGE  5


LOC  OBJECT CODE     LINE SOURCE TEXT
  VALUE

000192 6E05           00192     MOVWF temp_wr
000194 EC?? F???      00193     call i_write
                      00194         
                      00195 ;Displays " GUESS THE FOUR "
                      00196         ; "   DIGIT CODE   "
000198 EC?? F???      00197     call        LCDLine_1
00019C 0E20           00198     movLW       A' '
00019E 6E05           00199     movWF       temp_wr
0001A0 EC?? F???      00200     call        d_write
0001A4 0E47           00201     movLW       A'G'
0001A6 6E05           00202     movWF       temp_wr
0001A8 EC?? F???      00203     call        d_write
0001AC 0E55           00204     movLW       A'U'
0001AE 6E05           00205     movWF       temp_wr
0001B0 EC?? F???      00206     call        d_write
0001B4 0E45           00207     movLW       A'E'
0001B6 6E05           00208     movWF       temp_wr
0001B8 EC?? F???      00209     call        d_write
0001BC 0E53           00210     movLW       A'S'
0001BE 6E05           00211     movWF       temp_wr
0001C0 EC?? F???      00212     call        d_write
0001C4 0E53           00213     movLW       A'S'
0001C6 6E05           00214     movWF       temp_wr
0001C8 EC?? F???      00215     call        d_write
0001CC 0E20           00216     movLW       A' '
0001CE 6E05           00217     movWF       temp_wr
0001D0 EC?? F???      00218     call        d_write
0001D4 0E54           00219     movLW       A'T'
0001D6 6E05           00220     movWF       temp_wr
0001D8 EC?? F???      00221     call        d_write
0001DC 0E48           00222     movLW       A'H'
0001DE 6E05           00223     movWF       temp_wr
0001E0 EC?? F???      00224     call        d_write
0001E4 0E45           00225     movLW       A'E'
0001E6 6E05           00226     movWF       temp_wr
0001E8 EC?? F???      00227     call        d_write
0001EC 0E20           00228     movLW       A' '
0001EE 6E05           00229     movWF       temp_wr
0001F0 EC?? F???      00230     call        d_write
0001F4 0E46           00231     movLW       A'F'
0001F6 6E05           00232     movWF       temp_wr
0001F8 EC?? F???      00233     call        d_write
0001FC 0E4F           00234     movLW       A'O'
0001FE 6E05           00235     movWF       temp_wr
000200 EC?? F???      00236     call        d_write
000204 0E55           00237     movLW       A'U'
000206 6E05           00238     movWF       temp_wr
000208 EC?? F???      00239     call        d_write
00020C 0E52           00240     movLW       A'R'
00020E 6E05           00241     movWF       temp_wr
000210 EC?? F???      00242     call        d_write
000214 0E20           00243     movLW       A' '
000216 6E05           00244     movWF       temp_wr
MPASM 5.77                 THE_REAL_DEAL.ASM   12-13-2019  1:09:44         PAGE  6


LOC  OBJECT CODE     LINE SOURCE TEXT
  VALUE

000218 EC?? F???      00245     call        d_write
                      00246     
00021C EC?? F???      00247     call        LCDLine_2
000220 0E20           00248     movLW       A' '
000222 6E05           00249     movWF       temp_wr
000224 EC?? F???      00250     call        d_write
000228 0E20           00251     movLW       A' '
00022A 6E05           00252     movWF       temp_wr
00022C EC?? F???      00253     call        d_write
000230 0E20           00254     movLW       A' '
000232 6E05           00255     movWF       temp_wr
000234 EC?? F???      00256     call        d_write
000238 0E44           00257     movLW       A'D'
00023A 6E05           00258     movWF       temp_wr
00023C EC?? F???      00259     call        d_write
000240 0E49           00260     movLW       A'I'
000242 6E05           00261     movWF       temp_wr
000244 EC?? F???      00262     call        d_write
000248 0E47           00263     movLW       A'G'
00024A 6E05           00264     movWF       temp_wr
00024C EC?? F???      00265     call        d_write
000250 0E49           00266     movLW       A'I'
000252 6E05           00267     movWF       temp_wr
000254 EC?? F???      00268     call        d_write
000258 0E54           00269     movLW       A'T'
00025A 6E05           00270     movWF       temp_wr
00025C EC?? F???      00271     call        d_write
000260 0E20           00272     movLW       A' '
000262 6E05           00273     movWF       temp_wr
000264 EC?? F???      00274     call        d_write
000268 0E43           00275     movLW       A'C'
00026A 6E05           00276     movWF       temp_wr
00026C EC?? F???      00277     call        d_write
000270 0E4F           00278     movLW       A'O'
000272 6E05           00279     movWF       temp_wr
000274 EC?? F???      00280     call        d_write
000278 0E44           00281     movLW       A'D'
00027A 6E05           00282     movWF       temp_wr
00027C EC?? F???      00283     call        d_write
000280 0E45           00284     movLW       A'E'
000282 6E05           00285     movWF       temp_wr
000284 EC?? F???      00286     call        d_write
000288 0E20           00287     movLW       A' '
00028A 6E05           00288     movWF       temp_wr
00028C EC?? F???      00289     call        d_write
000290 0E20           00290     movLW       A' '
000292 6E05           00291     movWF       temp_wr
000294 EC?? F???      00292     call        d_write
000298 0E20           00293     movLW       A' '
00029A 6E05           00294     movWF       temp_wr
00029C EC?? F???      00295     call        d_write
                      00296     
                      00297 ;Wait before clearing the display
MPASM 5.77                 THE_REAL_DEAL.ASM   12-13-2019  1:09:44         PAGE  7


LOC  OBJECT CODE     LINE SOURCE TEXT
  VALUE

0002A0 0E10           00298     movLW       10
0002A2 6E00           00299     movWF       Count2
0002A4 6A01           00300     clrF        Count1
0002A6 6A02           00301     clrF        Count0
0002A8                00302 WLoo1   
0002A8 2E02           00303     decFsZ      Count0
0002AA D???           00304     bra         WLoo1
0002AC 2E01           00305     decFsZ      Count1
0002AE D???           00306     bra         WLoo1
0002B0 2E00           00307     decFsZ      Count2
0002B2 D???           00308     bra         WLoo1   
                      00309     
                      00310     ;Return home
0002B4 0E02           00311     MOVLW 2H 
0002B6 6E05           00312     MOVWF temp_wr
0002B8 EC?? F???      00313     call i_write
                      00314     
                      00315 ;Displays "EACH DIGIT IS IN"
                      00316         ; "  THE RANGE OF  "
0002BC EC?? F???      00317     call        LCDLine_1
0002C0 0E45           00318     movLW       A'E'
0002C2 6E05           00319     movWF       temp_wr
0002C4 EC?? F???      00320     call        d_write
0002C8 0E41           00321     movLW       A'A'
0002CA 6E05           00322     movWF       temp_wr
0002CC EC?? F???      00323     call        d_write
0002D0 0E43           00324     movLW       A'C'
0002D2 6E05           00325     movWF       temp_wr
0002D4 EC?? F???      00326     call        d_write
0002D8 0E48           00327     movLW       A'H'
0002DA 6E05           00328     movWF       temp_wr
0002DC EC?? F???      00329     call        d_write
0002E0 0E20           00330     movLW       A' '
0002E2 6E05           00331     movWF       temp_wr
0002E4 EC?? F???      00332     call        d_write
0002E8 0E44           00333     movLW       A'D'
0002EA 6E05           00334     movWF       temp_wr
0002EC EC?? F???      00335     call        d_write
0002F0 0E49           00336     movLW       A'I'
0002F2 6E05           00337     movWF       temp_wr
0002F4 EC?? F???      00338     call        d_write
0002F8 0E47           00339     movLW       A'G'
0002FA 6E05           00340     movWF       temp_wr
0002FC EC?? F???      00341     call        d_write
000300 0E49           00342     movLW       A'I'
000302 6E05           00343     movWF       temp_wr
000304 EC?? F???      00344     call        d_write
000308 0E54           00345     movLW       A'T'
00030A 6E05           00346     movWF       temp_wr
00030C EC?? F???      00347     call        d_write
000310 0E20           00348     movLW       A' '
000312 6E05           00349     movWF       temp_wr
000314 EC?? F???      00350     call        d_write
MPASM 5.77                 THE_REAL_DEAL.ASM   12-13-2019  1:09:44         PAGE  8


LOC  OBJECT CODE     LINE SOURCE TEXT
  VALUE

000318 0E49           00351     movLW       A'I'
00031A 6E05           00352     movWF       temp_wr
00031C EC?? F???      00353     call        d_write
000320 0E53           00354     movLW       A'S'
000322 6E05           00355     movWF       temp_wr
000324 EC?? F???      00356     call        d_write
000328 0E20           00357     movLW       A' '
00032A 6E05           00358     movWF       temp_wr
00032C EC?? F???      00359     call        d_write
000330 0E49           00360     movLW       A'I'
000332 6E05           00361     movWF       temp_wr
000334 EC?? F???      00362     call        d_write
000338 0E4E           00363     movLW       A'N'
00033A 6E05           00364     movWF       temp_wr
00033C EC?? F???      00365     call        d_write
                      00366     
000340 EC?? F???      00367     call        LCDLine_2
000344 0E20           00368     movLW       A' '
000346 6E05           00369     movWF       temp_wr
000348 EC?? F???      00370     call        d_write
00034C 0E20           00371     movLW       A' '
00034E 6E05           00372     movWF       temp_wr
000350 EC?? F???      00373     call        d_write
000354 0E54           00374     movLW       A'T'
000356 6E05           00375     movWF       temp_wr
000358 EC?? F???      00376     call        d_write
00035C 0E48           00377     movLW       A'H'
00035E 6E05           00378     movWF       temp_wr
000360 EC?? F???      00379     call        d_write
000364 0E45           00380     movLW       A'E'
000366 6E05           00381     movWF       temp_wr
000368 EC?? F???      00382     call        d_write
00036C 0E20           00383     movLW       A' '
00036E 6E05           00384     movWF       temp_wr
000370 EC?? F???      00385     call        d_write
000374 0E52           00386     movLW       A'R'
000376 6E05           00387     movWF       temp_wr
000378 EC?? F???      00388     call        d_write
00037C 0E41           00389     movLW       A'A'
00037E 6E05           00390     movWF       temp_wr
000380 EC?? F???      00391     call        d_write
000384 0E4E           00392     movLW       A'N'
000386 6E05           00393     movWF       temp_wr
000388 EC?? F???      00394     call        d_write
00038C 0E47           00395     movLW       A'G'
00038E 6E05           00396     movWF       temp_wr
000390 EC?? F???      00397     call        d_write
000394 0E45           00398     movLW       A'E'
000396 6E05           00399     movWF       temp_wr
000398 EC?? F???      00400     call        d_write
00039C 0E20           00401     movLW       A' '
00039E 6E05           00402     movWF       temp_wr
0003A0 EC?? F???      00403     call        d_write
MPASM 5.77                 THE_REAL_DEAL.ASM   12-13-2019  1:09:44         PAGE  9


LOC  OBJECT CODE     LINE SOURCE TEXT
  VALUE

0003A4 0E4F           00404     movLW       A'O'
0003A6 6E05           00405     movWF       temp_wr
0003A8 EC?? F???      00406     call        d_write
0003AC 0E46           00407     movLW       A'F'
0003AE 6E05           00408     movWF       temp_wr
0003B0 EC?? F???      00409     call        d_write
0003B4 0E20           00410     movLW       A' '
0003B6 6E05           00411     movWF       temp_wr
0003B8 EC?? F???      00412     call        d_write
0003BC 0E20           00413     movLW       A' '
0003BE 6E05           00414     movWF       temp_wr
0003C0 EC?? F???      00415     call        d_write
                      00416     
                      00417     ;Wait before clearing the display
0003C4 0E10           00418     movLW       10
0003C6 6E00           00419     movWF       Count2
0003C8 6A01           00420     clrF        Count1
0003CA 6A02           00421     clrF        Count0
0003CC                00422 WLoo2   
0003CC 2E02           00423     decFsZ      Count0
0003CE D???           00424     bra         WLoo2
0003D0 2E01           00425     decFsZ      Count1
0003D2 D???           00426     bra         WLoo2
0003D4 2E00           00427     decFsZ      Count2
0003D6 D???           00428     bra         WLoo2   
                      00429     
                      00430    ;RETURN HOME 
0003D8 0E02           00431     MOVLW 2H 
0003DA 6E05           00432     MOVWF temp_wr
0003DC EC?? F???      00433     call i_write
                      00434     
                      00435 ;Displays "  ZERO TO FIVE  "
0003E0 EC?? F???      00436     call        LCDLine_1
0003E4 0E20           00437     movLW       A' '
0003E6 6E05           00438     movWF       temp_wr
0003E8 EC?? F???      00439     call        d_write
0003EC 0E20           00440     movLW       A' '
0003EE 6E05           00441     movWF       temp_wr
0003F0 EC?? F???      00442     call        d_write
0003F4 0E5A           00443     movLW       A'Z'
0003F6 6E05           00444     movWF       temp_wr
0003F8 EC?? F???      00445     call        d_write
0003FC 0E45           00446     movLW       A'E'
0003FE 6E05           00447     movWF       temp_wr
000400 EC?? F???      00448     call        d_write
000404 0E52           00449     movLW       A'R'
000406 6E05           00450     movWF       temp_wr
000408 EC?? F???      00451     call        d_write
00040C 0E4F           00452     movLW       A'O'
00040E 6E05           00453     movWF       temp_wr
000410 EC?? F???      00454     call        d_write
000414 0E20           00455     movLW       A' '
000416 6E05           00456     movWF       temp_wr
MPASM 5.77                 THE_REAL_DEAL.ASM   12-13-2019  1:09:44         PAGE 10


LOC  OBJECT CODE     LINE SOURCE TEXT
  VALUE

000418 EC?? F???      00457     call        d_write
00041C 0E54           00458     movLW       A'T'
00041E 6E05           00459     movWF       temp_wr
000420 EC?? F???      00460     call        d_write
000424 0E4F           00461     movLW       A'O'
000426 6E05           00462     movWF       temp_wr
000428 EC?? F???      00463     call        d_write
00042C 0E20           00464     movLW       A' '
00042E 6E05           00465     movWF       temp_wr
000430 EC?? F???      00466     call        d_write
000434 0E46           00467     movLW       A'F'
000436 6E05           00468     movWF       temp_wr
000438 EC?? F???      00469     call        d_write
00043C 0E49           00470     movLW       A'I'
00043E 6E05           00471     movWF       temp_wr
000440 EC?? F???      00472     call        d_write
000444 0E56           00473     movLW       A'V'
000446 6E05           00474     movWF       temp_wr
000448 EC?? F???      00475     call        d_write
00044C 0E45           00476     movLW       A'E'
00044E 6E05           00477     movWF       temp_wr
000450 EC?? F???      00478     call        d_write
000454 0E20           00479     movLW       A' '
000456 6E05           00480     movWF       temp_wr
000458 EC?? F???      00481     call        d_write
00045C 0E20           00482     movLW       A' '
00045E 6E05           00483     movWF       temp_wr
000460 EC?? F???      00484     call        d_write
                      00485 
000464 EC?? F???      00486     call        LCDLine_2
000468 0E20           00487     movLW       A' '
00046A 6E05           00488     movWF       temp_wr
00046C EC?? F???      00489     call        d_write
000470 0E20           00490     movLW       A' '
000472 6E05           00491     movWF       temp_wr
000474 EC?? F???      00492     call        d_write
000478 0E20           00493     movLW       A' '
00047A 6E05           00494     movWF       temp_wr
00047C EC?? F???      00495     call        d_write
000480 0E20           00496     movLW       A' '
000482 6E05           00497     movWF       temp_wr
000484 EC?? F???      00498     call        d_write
000488 0E20           00499     movLW       A' '
00048A 6E05           00500     movWF       temp_wr
00048C EC?? F???      00501     call        d_write
000490 0E20           00502     movLW       A' '
000492 6E05           00503     movWF       temp_wr
000494 EC?? F???      00504     call        d_write
000498 0E20           00505     movLW       A' '
00049A 6E05           00506     movWF       temp_wr
00049C EC?? F???      00507     call        d_write
0004A0 0E20           00508     movLW       A' '
0004A2 6E05           00509     movWF       temp_wr
MPASM 5.77                 THE_REAL_DEAL.ASM   12-13-2019  1:09:44         PAGE 11


LOC  OBJECT CODE     LINE SOURCE TEXT
  VALUE

0004A4 EC?? F???      00510     call        d_write
0004A8 0E20           00511     movLW       A' '
0004AA 6E05           00512     movWF       temp_wr
0004AC EC?? F???      00513     call        d_write
0004B0 0E20           00514     movLW       A' '
0004B2 6E05           00515     movWF       temp_wr
0004B4 EC?? F???      00516     call        d_write
0004B8 0E20           00517     movLW       A' '
0004BA 6E05           00518     movWF       temp_wr
0004BC EC?? F???      00519     call        d_write
0004C0 0E20           00520     movLW       A' '
0004C2 6E05           00521     movWF       temp_wr
0004C4 EC?? F???      00522     call        d_write
0004C8 0E20           00523     movLW       A' '
0004CA 6E05           00524     movWF       temp_wr
0004CC EC?? F???      00525     call        d_write
0004D0 0E20           00526     movLW       A' '
0004D2 6E05           00527     movWF       temp_wr
0004D4 EC?? F???      00528     call        d_write
0004D8 0E20           00529     movLW       A' '
0004DA 6E05           00530     movWF       temp_wr
0004DC EC?? F???      00531     call        d_write
0004E0 0E20           00532     movLW       A' '
0004E2 6E05           00533     movWF       temp_wr
0004E4 EC?? F???      00534     call        d_write
                      00535     
0004E8 0E10           00536     movLW       10
0004EA 6E00           00537     movWF       Count2
0004EC 6A01           00538     clrF        Count1
0004EE 6A02           00539     clrF        Count0
0004F0                00540 WLoo3   
0004F0 2E02           00541     decFsZ      Count0
0004F2 D???           00542     bra         WLoo3
0004F4 2E01           00543     decFsZ      Count1
0004F6 D???           00544     bra         WLoo3
0004F8 2E00           00545     decFsZ      Count2
0004FA D???           00546     bra         WLoo3   
                      00547      
0004FC 0E02           00548     MOVLW 2H 
0004FE 6E05           00549     MOVWF temp_wr
000500 EC?? F???      00550     call i_write
                      00551     
                      00552 ;Displays "PRESS SW2 TO GO "
                      00553         ; "THROUGH NUMBERS "
000504 EC?? F???      00554     call        LCDLine_1
000508 0E50           00555     movLW       A'P'
00050A 6E05           00556     movWF       temp_wr
00050C EC?? F???      00557     call        d_write
000510 0E52           00558     movLW       A'R'
000512 6E05           00559     movWF       temp_wr
000514 EC?? F???      00560     call        d_write
000518 0E45           00561     movLW       A'E'
00051A 6E05           00562     movWF       temp_wr
MPASM 5.77                 THE_REAL_DEAL.ASM   12-13-2019  1:09:44         PAGE 12


LOC  OBJECT CODE     LINE SOURCE TEXT
  VALUE

00051C EC?? F???      00563     call        d_write
000520 0E53           00564     movLW       A'S'
000522 6E05           00565     movWF       temp_wr
000524 EC?? F???      00566     call        d_write
000528 0E53           00567     movLW       A'S'
00052A 6E05           00568     movWF       temp_wr
00052C EC?? F???      00569     call        d_write
000530 0E20           00570     movLW       A' '
000532 6E05           00571     movWF       temp_wr
000534 EC?? F???      00572     call        d_write
000538 0E53           00573     movLW       A'S'
00053A 6E05           00574     movWF       temp_wr
00053C EC?? F???      00575     call        d_write
000540 0E57           00576     movLW       A'W'
000542 6E05           00577     movWF       temp_wr
000544 EC?? F???      00578     call        d_write
000548 0E32           00579     movLW       32H
00054A 6E05           00580     movWF       temp_wr
00054C EC?? F???      00581     call        d_write
000550 0E20           00582     movLW       A' '
000552 6E05           00583     movWF       temp_wr
000554 EC?? F???      00584     call        d_write
000558 0E54           00585     movLW       A'T'
00055A 6E05           00586     movWF       temp_wr
00055C EC?? F???      00587     call        d_write
000560 0E4F           00588     movLW       A'O'
000562 6E05           00589     movWF       temp_wr
000564 EC?? F???      00590     call        d_write
000568 0E20           00591     movLW       A' '
00056A 6E05           00592     movWF       temp_wr
00056C EC?? F???      00593     call        d_write
000570 0E47           00594     movLW       A'G'
000572 6E05           00595     movWF       temp_wr
000574 EC?? F???      00596     call        d_write
000578 0E4F           00597     movLW       A'O'
00057A 6E05           00598     movWF       temp_wr
00057C EC?? F???      00599     call        d_write
000580 0E20           00600     movLW       A' '
000582 6E05           00601     movWF       temp_wr
000584 EC?? F???      00602     call        d_write
                      00603     
000588 EC?? F???      00604     call        LCDLine_2
00058C 0E54           00605     movLW       A'T'
00058E 6E05           00606     movWF       temp_wr
000590 EC?? F???      00607     call        d_write
000594 0E48           00608     movLW       A'H'
000596 6E05           00609     movWF       temp_wr
000598 EC?? F???      00610     call        d_write
00059C 0E52           00611     movLW       A'R'
00059E 6E05           00612     movWF       temp_wr
0005A0 EC?? F???      00613     call        d_write
0005A4 0E4F           00614     movLW       A'O'
0005A6 6E05           00615     movWF       temp_wr
MPASM 5.77                 THE_REAL_DEAL.ASM   12-13-2019  1:09:44         PAGE 13


LOC  OBJECT CODE     LINE SOURCE TEXT
  VALUE

0005A8 EC?? F???      00616     call        d_write
0005AC 0E55           00617     movLW       A'U'
0005AE 6E05           00618     movWF       temp_wr
0005B0 EC?? F???      00619     call        d_write
0005B4 0E47           00620     movLW       A'G'
0005B6 6E05           00621     movWF       temp_wr
0005B8 EC?? F???      00622     call        d_write
0005BC 0E48           00623     movLW       A'H'
0005BE 6E05           00624     movWF       temp_wr
0005C0 EC?? F???      00625     call        d_write
0005C4 0E20           00626     movLW       A' '
0005C6 6E05           00627     movWF       temp_wr
0005C8 EC?? F???      00628     call        d_write
0005CC 0E4E           00629     movLW       A'N'
0005CE 6E05           00630     movWF       temp_wr
0005D0 EC?? F???      00631     call        d_write
0005D4 0E55           00632     movLW       A'U'
0005D6 6E05           00633     movWF       temp_wr
0005D8 EC?? F???      00634     call        d_write
0005DC 0E4D           00635     movLW       A'M'
0005DE 6E05           00636     movWF       temp_wr
0005E0 EC?? F???      00637     call        d_write
0005E4 0E42           00638     movLW       A'B'
0005E6 6E05           00639     movWF       temp_wr
0005E8 EC?? F???      00640     call        d_write
0005EC 0E45           00641     movLW       A'E'
0005EE 6E05           00642     movWF       temp_wr
0005F0 EC?? F???      00643     call        d_write
0005F4 0E52           00644     movLW       A'R'
0005F6 6E05           00645     movWF       temp_wr
0005F8 EC?? F???      00646     call        d_write
0005FC 0E53           00647     movLW       A'S'
0005FE 6E05           00648     movWF       temp_wr
000600 EC?? F???      00649     call        d_write
000604 0E20           00650     movLW       A' '
000606 6E05           00651     movWF       temp_wr
000608 EC?? F???      00652     call        d_write
                      00653     
                      00654     ;Delay
00060C 0E10           00655     movLW       10
00060E 6E00           00656     movWF       Count2
000610 6A01           00657     clrF        Count1
000612 6A02           00658     clrF        Count0
000614                00659 WLoo4   
000614 2E02           00660     decFsZ      Count0
000616 D???           00661     bra         WLoo4
000618 2E01           00662     decFsZ      Count1
00061A D???           00663     bra         WLoo4
00061C 2E00           00664     decFsZ      Count2
00061E D???           00665     bra         WLoo4   
                      00666     
                      00667     ;return home
000620 0E02           00668     MOVLW 2H 
MPASM 5.77                 THE_REAL_DEAL.ASM   12-13-2019  1:09:44         PAGE 14


LOC  OBJECT CODE     LINE SOURCE TEXT
  VALUE

000622 6E05           00669     MOVWF temp_wr
000624 EC?? F???      00670     call i_write
                      00671     
                      00672 ;Displays "  PRESS SW3 TO   "
                      00673         ; "  SELECT THE #   "
000628 EC?? F???      00674     call        LCDLine_1
00062C 0E20           00675     movLW       A' '
00062E 6E05           00676     movWF       temp_wr
000630 EC?? F???      00677     call        d_write
000634 0E20           00678     movLW       A' '
000636 6E05           00679     movWF       temp_wr
000638 EC?? F???      00680     call        d_write
00063C 0E50           00681     movLW       A'P'
00063E 6E05           00682     movWF       temp_wr
000640 EC?? F???      00683     call        d_write
000644 0E52           00684     movLW       A'R'
000646 6E05           00685     movWF       temp_wr
000648 EC?? F???      00686     call        d_write
00064C 0E45           00687     movLW       A'E'
00064E 6E05           00688     movWF       temp_wr
000650 EC?? F???      00689     call        d_write
000654 0E53           00690     movLW       A'S'
000656 6E05           00691     movWF       temp_wr
000658 EC?? F???      00692     call        d_write
00065C 0E53           00693     movLW       A'S'
00065E 6E05           00694     movWF       temp_wr
000660 EC?? F???      00695     call        d_write
000664 0E20           00696     movLW       A' '
000666 6E05           00697     movWF       temp_wr
000668 EC?? F???      00698     call        d_write
00066C 0E53           00699     movLW       A'S'
00066E 6E05           00700     movWF       temp_wr
000670 EC?? F???      00701     call        d_write
000674 0E57           00702     movLW       A'W'
000676 6E05           00703     movWF       temp_wr
000678 EC?? F???      00704     call        d_write
00067C 0E33           00705     movLW       33H
00067E 6E05           00706     movWF       temp_wr
000680 EC?? F???      00707     call        d_write
000684 0E20           00708     movLW       A' '
000686 6E05           00709     movWF       temp_wr
000688 EC?? F???      00710     call        d_write
00068C 0E54           00711     movLW       A'T'
00068E 6E05           00712     movWF       temp_wr
000690 EC?? F???      00713     call        d_write
000694 0E4F           00714     movLW       A'O'
000696 6E05           00715     movWF       temp_wr
000698 EC?? F???      00716     call        d_write
00069C 0E20           00717     movLW       A' '
00069E 6E05           00718     movWF       temp_wr
0006A0 EC?? F???      00719     call        d_write
0006A4 0E20           00720     movLW       A' '
0006A6 6E05           00721     movWF       temp_wr
MPASM 5.77                 THE_REAL_DEAL.ASM   12-13-2019  1:09:44         PAGE 15


LOC  OBJECT CODE     LINE SOURCE TEXT
  VALUE

0006A8 EC?? F???      00722     call        d_write
0006AC 0E20           00723     movLW       A' '
0006AE 6E05           00724     movWF       temp_wr
0006B0 EC?? F???      00725     call        d_write
                      00726     
0006B4 EC?? F???      00727     call        LCDLine_2
0006B8 0E20           00728     movLW       A' '
0006BA 6E05           00729     movWF       temp_wr
0006BC EC?? F???      00730     call        d_write
0006C0 0E20           00731     movLW       A' '
0006C2 6E05           00732     movWF       temp_wr
0006C4 EC?? F???      00733     call        d_write
0006C8 0E53           00734     movLW       A'S'
0006CA 6E05           00735     movWF       temp_wr
0006CC EC?? F???      00736     call        d_write
0006D0 0E45           00737     movLW       A'E'
0006D2 6E05           00738     movWF       temp_wr
0006D4 EC?? F???      00739     call        d_write
0006D8 0E4C           00740     movLW       A'L'
0006DA 6E05           00741     movWF       temp_wr
0006DC EC?? F???      00742     call        d_write
0006E0 0E45           00743     movLW       A'E'
0006E2 6E05           00744     movWF       temp_wr
0006E4 EC?? F???      00745     call        d_write
0006E8 0E43           00746     movLW       A'C'
0006EA 6E05           00747     movWF       temp_wr
0006EC EC?? F???      00748     call        d_write
0006F0 0E54           00749     movLW       A'T'
0006F2 6E05           00750     movWF       temp_wr
0006F4 EC?? F???      00751     call        d_write
0006F8 0E20           00752     movLW       A' '
0006FA 6E05           00753     movWF       temp_wr
0006FC EC?? F???      00754     call        d_write
000700 0E54           00755     movLW       A'T'
000702 6E05           00756     movWF       temp_wr
000704 EC?? F???      00757     call        d_write
000708 0E48           00758     movLW       A'H'
00070A 6E05           00759     movWF       temp_wr
00070C EC?? F???      00760     call        d_write
000710 0E45           00761     movLW       A'E'
000712 6E05           00762     movWF       temp_wr
000714 EC?? F???      00763     call        d_write
000718 0E20           00764     movLW       A' '
00071A 6E05           00765     movWF       temp_wr
00071C EC?? F???      00766     call        d_write
000720 0E23           00767     movLW       A'#'
000722 6E05           00768     movWF       temp_wr
000724 EC?? F???      00769     call        d_write
000728 0E20           00770     movLW       A' '
00072A 6E05           00771     movWF       temp_wr
00072C EC?? F???      00772     call        d_write
000730 0E20           00773     movLW       A' '
000732 6E05           00774     movWF       temp_wr
MPASM 5.77                 THE_REAL_DEAL.ASM   12-13-2019  1:09:44         PAGE 16


LOC  OBJECT CODE     LINE SOURCE TEXT
  VALUE

000734 EC?? F???      00775     call        d_write
000738 0E20           00776     movLW       A' '
00073A 6E05           00777     movWF       temp_wr
00073C EC?? F???      00778     call        d_write
                      00779     
                      00780     ;delay
000740 0E10           00781     movLW       10
000742 6E00           00782     movWF       Count2
000744 6A01           00783     clrF        Count1
000746 6A02           00784     clrF        Count0
000748                00785 WLoo5   
000748 2E02           00786     decFsZ      Count0
00074A D???           00787     bra         WLoo5
00074C 2E01           00788     decFsZ      Count1
00074E D???           00789     bra         WLoo5
000750 2E00           00790     decFsZ      Count2
000752 D???           00791     bra         WLoo5   
                      00792     
                      00793     ;return home
000754 0E02           00794     MOVLW 2H 
000756 6E05           00795     MOVWF temp_wr
000758 EC?? F???      00796     call i_write
                      00797     
                      00798 ;Displays "AFTER GUESSING  "
                      00799         ; "THE CODE, THE   "
00075C EC?? F???      00800     call        LCDLine_1
000760 0E41           00801     movLW       A'A'
000762 6E05           00802     movWF       temp_wr
000764 EC?? F???      00803     call        d_write
000768 0E46           00804     movLW       A'F'
00076A 6E05           00805     movWF       temp_wr
00076C EC?? F???      00806     call        d_write
000770 0E54           00807     movLW       A'T'
000772 6E05           00808     movWF       temp_wr
000774 EC?? F???      00809     call        d_write
000778 0E45           00810     movLW       A'E'
00077A 6E05           00811     movWF       temp_wr
00077C EC?? F???      00812     call        d_write
000780 0E52           00813     movLW       A'R'
000782 6E05           00814     movWF       temp_wr
000784 EC?? F???      00815     call        d_write
000788 0E20           00816     movLW       A' '
00078A 6E05           00817     movWF       temp_wr
00078C EC?? F???      00818     call        d_write
000790 0E47           00819     movLW       A'G'
000792 6E05           00820     movWF       temp_wr
000794 EC?? F???      00821     call        d_write
000798 0E55           00822     movLW       A'U'
00079A 6E05           00823     movWF       temp_wr
00079C EC?? F???      00824     call        d_write
0007A0 0E45           00825     movLW       A'E'
0007A2 6E05           00826     movWF       temp_wr
0007A4 EC?? F???      00827     call        d_write
MPASM 5.77                 THE_REAL_DEAL.ASM   12-13-2019  1:09:44         PAGE 17


LOC  OBJECT CODE     LINE SOURCE TEXT
  VALUE

0007A8 0E53           00828     movLW       A'S'
0007AA 6E05           00829     movWF       temp_wr
0007AC EC?? F???      00830     call        d_write
0007B0 0E53           00831     movLW       A'S'
0007B2 6E05           00832     movWF       temp_wr
0007B4 EC?? F???      00833     call        d_write
0007B8 0E49           00834     movLW       A'I'
0007BA 6E05           00835     movWF       temp_wr
0007BC EC?? F???      00836     call        d_write
0007C0 0E4E           00837     movLW       A'N'
0007C2 6E05           00838     movWF       temp_wr
0007C4 EC?? F???      00839     call        d_write
0007C8 0E47           00840     movLW       A'G'
0007CA 6E05           00841     movWF       temp_wr
0007CC EC?? F???      00842     call        d_write
0007D0 0E20           00843     movLW       A' '
0007D2 6E05           00844     movWF       temp_wr
0007D4 EC?? F???      00845     call        d_write
0007D8 0E20           00846     movLW       A' '
0007DA 6E05           00847     movWF       temp_wr
0007DC EC?? F???      00848     call        d_write
                      00849     
0007E0 EC?? F???      00850     call        LCDLine_2
0007E4 0E54           00851     movLW       A'T'
0007E6 6E05           00852     movWF       temp_wr
0007E8 EC?? F???      00853     call        d_write
0007EC 0E48           00854     movLW       A'H'
0007EE 6E05           00855     movWF       temp_wr
0007F0 EC?? F???      00856     call        d_write
0007F4 0E45           00857     movLW       A'E'
0007F6 6E05           00858     movWF       temp_wr
0007F8 EC?? F???      00859     call        d_write
0007FC 0E20           00860     movLW       A' '
0007FE 6E05           00861     movWF       temp_wr
000800 EC?? F???      00862     call        d_write
000804 0E43           00863     movLW       A'C'
000806 6E05           00864     movWF       temp_wr
000808 EC?? F???      00865     call        d_write
00080C 0E4F           00866     movLW       A'O'
00080E 6E05           00867     movWF       temp_wr
000810 EC?? F???      00868     call        d_write
000814 0E44           00869     movLW       A'D'
000816 6E05           00870     movWF       temp_wr
000818 EC?? F???      00871     call        d_write
00081C 0E45           00872     movLW       A'E'
00081E 6E05           00873     movWF       temp_wr
000820 EC?? F???      00874     call        d_write
000824 0E2C           00875     movLW       A','
000826 6E05           00876     movWF       temp_wr
000828 EC?? F???      00877     call        d_write
00082C 0E20           00878     movLW       A' '
00082E 6E05           00879     movWF       temp_wr
000830 EC?? F???      00880     call        d_write
MPASM 5.77                 THE_REAL_DEAL.ASM   12-13-2019  1:09:44         PAGE 18


LOC  OBJECT CODE     LINE SOURCE TEXT
  VALUE

000834 0E54           00881     movLW       A'T'
000836 6E05           00882     movWF       temp_wr
000838 EC?? F???      00883     call        d_write
00083C 0E48           00884     movLW       A'H'
00083E 6E05           00885     movWF       temp_wr
000840 EC?? F???      00886     call        d_write
000844 0E45           00887     movLW       A'E'
000846 6E05           00888     movWF       temp_wr
000848 EC?? F???      00889     call        d_write
00084C 0E20           00890     movLW       A' '
00084E 6E05           00891     movWF       temp_wr
000850 EC?? F???      00892     call        d_write
000854 0E20           00893     movLW       A' '
000856 6E05           00894     movWF       temp_wr
000858 EC?? F???      00895     call        d_write
00085C 0E20           00896     movLW       A' '
00085E 6E05           00897     movWF       temp_wr
000860 EC?? F???      00898     call        d_write
                      00899     
                      00900     ;delay
000864 0E10           00901     movLW       10
000866 6E00           00902     movWF       Count2
000868 6A01           00903     clrF        Count1
00086A 6A02           00904     clrF        Count0
00086C                00905 WLoo6   
00086C 2E02           00906     decFsZ      Count0
00086E D???           00907     bra         WLoo6
000870 2E01           00908     decFsZ      Count1
000872 D???           00909     bra         WLoo6
000874 2E00           00910     decFsZ      Count2
000876 D???           00911     bra         WLoo6   
                      00912     
                      00913     ;return home
000878 0E02           00914     MOVLW 2H 
00087A 6E05           00915     MOVWF temp_wr
00087C EC?? F???      00916     call i_write
                      00917     
                      00918 ;Displays "SCREEN WILL SHOW"
                      00919         ; "BLACK & WHITE #S"
000880 EC?? F???      00920     call        LCDLine_1
000884 0E53           00921     movLW       A'S'
000886 6E05           00922     movWF       temp_wr
000888 EC?? F???      00923     call        d_write
00088C 0E43           00924     movLW       A'C'
00088E 6E05           00925     movWF       temp_wr
000890 EC?? F???      00926     call        d_write
000894 0E52           00927     movLW       A'R'
000896 6E05           00928     movWF       temp_wr
000898 EC?? F???      00929     call        d_write
00089C 0E45           00930     movLW       A'E'
00089E 6E05           00931     movWF       temp_wr
0008A0 EC?? F???      00932     call        d_write
0008A4 0E45           00933     movLW       A'E'
MPASM 5.77                 THE_REAL_DEAL.ASM   12-13-2019  1:09:44         PAGE 19


LOC  OBJECT CODE     LINE SOURCE TEXT
  VALUE

0008A6 6E05           00934     movWF       temp_wr
0008A8 EC?? F???      00935     call        d_write
0008AC 0E4E           00936     movLW       A'N'
0008AE 6E05           00937     movWF       temp_wr
0008B0 EC?? F???      00938     call        d_write
0008B4 0E20           00939     movLW       A' '
0008B6 6E05           00940     movWF       temp_wr
0008B8 EC?? F???      00941     call        d_write
0008BC 0E57           00942     movLW       A'W'
0008BE 6E05           00943     movWF       temp_wr
0008C0 EC?? F???      00944     call        d_write
0008C4 0E49           00945     movLW       A'I'
0008C6 6E05           00946     movWF       temp_wr
0008C8 EC?? F???      00947     call        d_write
0008CC 0E4C           00948     movLW       A'L'
0008CE 6E05           00949     movWF       temp_wr
0008D0 EC?? F???      00950     call        d_write
0008D4 0E4C           00951     movLW       A'L'
0008D6 6E05           00952     movWF       temp_wr
0008D8 EC?? F???      00953     call        d_write
0008DC 0E20           00954     movLW       A' '
0008DE 6E05           00955     movWF       temp_wr
0008E0 EC?? F???      00956     call        d_write
0008E4 0E53           00957     movLW       A'S'
0008E6 6E05           00958     movWF       temp_wr
0008E8 EC?? F???      00959     call        d_write
0008EC 0E48           00960     movLW       A'H'
0008EE 6E05           00961     movWF       temp_wr
0008F0 EC?? F???      00962     call        d_write
0008F4 0E4F           00963     movLW       A'O'
0008F6 6E05           00964     movWF       temp_wr
0008F8 EC?? F???      00965     call        d_write
0008FC 0E57           00966     movLW       A'W'
0008FE 6E05           00967     movWF       temp_wr
000900 EC?? F???      00968     call        d_write
                      00969     
000904 EC?? F???      00970     call        LCDLine_2
000908 0E42           00971     movLW       A'B'
00090A 6E05           00972     movWF       temp_wr
00090C EC?? F???      00973     call        d_write
000910 0E4C           00974     movLW       A'L'
000912 6E05           00975     movWF       temp_wr
000914 EC?? F???      00976     call        d_write
000918 0E41           00977     movLW       A'A'
00091A 6E05           00978     movWF       temp_wr
00091C EC?? F???      00979     call        d_write
000920 0E43           00980     movLW       A'C'
000922 6E05           00981     movWF       temp_wr
000924 EC?? F???      00982     call        d_write
000928 0E4B           00983     movLW       A'K'
00092A 6E05           00984     movWF       temp_wr
00092C EC?? F???      00985     call        d_write
000930 0E20           00986     movLW       A' '
MPASM 5.77                 THE_REAL_DEAL.ASM   12-13-2019  1:09:44         PAGE 20


LOC  OBJECT CODE     LINE SOURCE TEXT
  VALUE

000932 6E05           00987     movWF       temp_wr
000934 EC?? F???      00988     call        d_write
000938 0E26           00989     movLW       A'&'
00093A 6E05           00990     movWF       temp_wr
00093C EC?? F???      00991     call        d_write
000940 0E20           00992     movLW       A' '
000942 6E05           00993     movWF       temp_wr
000944 EC?? F???      00994     call        d_write
000948 0E57           00995     movLW       A'W'
00094A 6E05           00996     movWF       temp_wr
00094C EC?? F???      00997     call        d_write
000950 0E48           00998     movLW       A'H'
000952 6E05           00999     movWF       temp_wr
000954 EC?? F???      01000     call        d_write
000958 0E49           01001     movLW       A'I'
00095A 6E05           01002     movWF       temp_wr
00095C EC?? F???      01003     call        d_write
000960 0E54           01004     movLW       A'T'
000962 6E05           01005     movWF       temp_wr
000964 EC?? F???      01006     call        d_write
000968 0E45           01007     movLW       A'E'
00096A 6E05           01008     movWF       temp_wr
00096C EC?? F???      01009     call        d_write
000970 0E20           01010     movLW       A' '
000972 6E05           01011     movWF       temp_wr
000974 EC?? F???      01012     call        d_write
000978 0E23           01013     movLW       A'#'
00097A 6E05           01014     movWF       temp_wr
00097C EC?? F???      01015     call        d_write
000980 0E53           01016     movLW       A'S'
000982 6E05           01017     movWF       temp_wr
000984 EC?? F???      01018     call        d_write
                      01019         
                      01020     ;delay
000988 0E10           01021     movLW       10
00098A 6E00           01022     movWF       Count2
00098C 6A01           01023     clrF        Count1
00098E 6A02           01024     clrF        Count0
000990                01025 WLoo7
000990 2E02           01026     decFsZ      Count0
000992 D???           01027     bra         WLoo7
000994 2E01           01028     decFsZ      Count1
000996 D???           01029     bra         WLoo7
000998 2E00           01030     decFsZ      Count2
00099A D???           01031     bra         WLoo7   
                      01032     
                      01033     ;return home
00099C 0E02           01034     MOVLW 2H 
00099E 6E05           01035     MOVWF temp_wr
0009A0 EC?? F???      01036     call i_write
                      01037     
                      01038 ;Displays " BLACK = CORRECT"
                      01039         ; " # AND POSITION "
MPASM 5.77                 THE_REAL_DEAL.ASM   12-13-2019  1:09:44         PAGE 21


LOC  OBJECT CODE     LINE SOURCE TEXT
  VALUE

0009A4 EC?? F???      01040     call        LCDLine_1
0009A8 0E20           01041     movLW       A' '
0009AA 6E05           01042     movWF       temp_wr
0009AC EC?? F???      01043     call        d_write
0009B0 0E42           01044     movLW       A'B'
0009B2 6E05           01045     movWF       temp_wr
0009B4 EC?? F???      01046     call        d_write
0009B8 0E4C           01047     movLW       A'L'
0009BA 6E05           01048     movWF       temp_wr
0009BC EC?? F???      01049     call        d_write
0009C0 0E41           01050     movLW       A'A'
0009C2 6E05           01051     movWF       temp_wr
0009C4 EC?? F???      01052     call        d_write
0009C8 0E43           01053     movLW       A'C'
0009CA 6E05           01054     movWF       temp_wr
0009CC EC?? F???      01055     call        d_write
0009D0 0E4B           01056     movLW       A'K'
0009D2 6E05           01057     movWF       temp_wr
0009D4 EC?? F???      01058     call        d_write
0009D8 0E20           01059     movLW       A' '
0009DA 6E05           01060     movWF       temp_wr
0009DC EC?? F???      01061     call        d_write
0009E0 0E3D           01062     movLW       A'='
0009E2 6E05           01063     movWF       temp_wr
0009E4 EC?? F???      01064     call        d_write
0009E8 0E20           01065     movLW       A' '
0009EA 6E05           01066     movWF       temp_wr
0009EC EC?? F???      01067     call        d_write
0009F0 0E43           01068     movLW       A'C'
0009F2 6E05           01069     movWF       temp_wr
0009F4 EC?? F???      01070     call        d_write
0009F8 0E4F           01071     movLW       A'O'
0009FA 6E05           01072     movWF       temp_wr
0009FC EC?? F???      01073     call        d_write
000A00 0E52           01074     movLW       A'R'
000A02 6E05           01075     movWF       temp_wr
000A04 EC?? F???      01076     call        d_write
000A08 0E52           01077     movLW       A'R'
000A0A 6E05           01078     movWF       temp_wr
000A0C EC?? F???      01079     call        d_write
000A10 0E45           01080     movLW       A'E'
000A12 6E05           01081     movWF       temp_wr
000A14 EC?? F???      01082     call        d_write
000A18 0E43           01083     movLW       A'C'
000A1A 6E05           01084     movWF       temp_wr
000A1C EC?? F???      01085     call        d_write
000A20 0E54           01086     movLW       A'T'
000A22 6E05           01087     movWF       temp_wr
000A24 EC?? F???      01088     call        d_write
                      01089     
000A28 EC?? F???      01090     call        LCDLine_2
000A2C 0E20           01091     movLW       A' '
000A2E 6E05           01092     movWF       temp_wr
MPASM 5.77                 THE_REAL_DEAL.ASM   12-13-2019  1:09:44         PAGE 22


LOC  OBJECT CODE     LINE SOURCE TEXT
  VALUE

000A30 EC?? F???      01093     call        d_write
000A34 0E23           01094     movLW       A'#'
000A36 6E05           01095     movWF       temp_wr
000A38 EC?? F???      01096     call        d_write
000A3C 0E20           01097     movLW       A' '
000A3E 6E05           01098     movWF       temp_wr
000A40 EC?? F???      01099     call        d_write
000A44 0E41           01100     movLW       A'A'
000A46 6E05           01101     movWF       temp_wr
000A48 EC?? F???      01102     call        d_write
000A4C 0E4E           01103     movLW       A'N'
000A4E 6E05           01104     movWF       temp_wr
000A50 EC?? F???      01105     call        d_write
000A54 0E44           01106     movLW       A'D'
000A56 6E05           01107     movWF       temp_wr
000A58 EC?? F???      01108     call        d_write
000A5C 0E20           01109     movLW       A' '
000A5E 6E05           01110     movWF       temp_wr
000A60 EC?? F???      01111     call        d_write
000A64 0E50           01112     movLW       A'P'
000A66 6E05           01113     movWF       temp_wr
000A68 EC?? F???      01114     call        d_write
000A6C 0E4F           01115     movLW       A'O'
000A6E 6E05           01116     movWF       temp_wr
000A70 EC?? F???      01117     call        d_write
000A74 0E53           01118     movLW       A'S'
000A76 6E05           01119     movWF       temp_wr
000A78 EC?? F???      01120     call        d_write
000A7C 0E49           01121     movLW       A'I'
000A7E 6E05           01122     movWF       temp_wr
000A80 EC?? F???      01123     call        d_write
000A84 0E54           01124     movLW       A'T'
000A86 6E05           01125     movWF       temp_wr
000A88 EC?? F???      01126     call        d_write
000A8C 0E49           01127     movLW       A'I'
000A8E 6E05           01128     movWF       temp_wr
000A90 EC?? F???      01129     call        d_write
000A94 0E4F           01130     movLW       A'O'
000A96 6E05           01131     movWF       temp_wr
000A98 EC?? F???      01132     call        d_write
000A9C 0E4E           01133     movLW       A'N'
000A9E 6E05           01134     movWF       temp_wr
000AA0 EC?? F???      01135     call        d_write
000AA4 0E20           01136     movLW       A' '
000AA6 6E05           01137     movWF       temp_wr
000AA8 EC?? F???      01138     call        d_write
                      01139     
                      01140     ;delay
000AAC 0E10           01141     movLW       10
000AAE 6E00           01142     movWF       Count2
000AB0 6A01           01143     clrF        Count1
000AB2 6A02           01144     clrF        Count0
000AB4                01145 WLoo8
MPASM 5.77                 THE_REAL_DEAL.ASM   12-13-2019  1:09:44         PAGE 23


LOC  OBJECT CODE     LINE SOURCE TEXT
  VALUE

000AB4 2E02           01146     decFsZ      Count0
000AB6 D???           01147     bra         WLoo8
000AB8 2E01           01148     decFsZ      Count1
000ABA D???           01149     bra         WLoo8
000ABC 2E00           01150     decFsZ      Count2
000ABE D???           01151     bra         WLoo8   
                      01152     
                      01153     ;return home
000AC0 0E02           01154     MOVLW 2H 
000AC2 6E05           01155     MOVWF temp_wr
000AC4 EC?? F???      01156     call i_write
                      01157     
                      01158 ;Displays " WHITE =        "
                      01159         ; "CORRECT # BUT   "
000AC8 EC?? F???      01160     call        LCDLine_1
000ACC 0E20           01161     movLW       A' '
000ACE 6E05           01162     movWF       temp_wr
000AD0 EC?? F???      01163     call        d_write
000AD4 0E57           01164     movLW       A'W'
000AD6 6E05           01165     movWF       temp_wr
000AD8 EC?? F???      01166     call        d_write
000ADC 0E48           01167     movLW       A'H'
000ADE 6E05           01168     movWF       temp_wr
000AE0 EC?? F???      01169     call        d_write
000AE4 0E49           01170     movLW       A'I'
000AE6 6E05           01171     movWF       temp_wr
000AE8 EC?? F???      01172     call        d_write
000AEC 0E54           01173     movLW       A'T'
000AEE 6E05           01174     movWF       temp_wr
000AF0 EC?? F???      01175     call        d_write
000AF4 0E45           01176     movLW       A'E'
000AF6 6E05           01177     movWF       temp_wr
000AF8 EC?? F???      01178     call        d_write
000AFC 0E20           01179     movLW       A' '
000AFE 6E05           01180     movWF       temp_wr
000B00 EC?? F???      01181     call        d_write
000B04 0E3D           01182     movLW       A'='
000B06 6E05           01183     movWF       temp_wr
000B08 EC?? F???      01184     call        d_write
000B0C 0E20           01185     movLW       A' '
000B0E 6E05           01186     movWF       temp_wr
000B10 EC?? F???      01187     call        d_write
000B14 0E20           01188     movLW       A' '
000B16 6E05           01189     movWF       temp_wr
000B18 EC?? F???      01190     call        d_write
000B1C 0E20           01191     movLW       A' '
000B1E 6E05           01192     movWF       temp_wr
000B20 EC?? F???      01193     call        d_write
000B24 0E20           01194     movLW       A' '
000B26 6E05           01195     movWF       temp_wr
000B28 EC?? F???      01196     call        d_write
000B2C 0E20           01197     movLW       A' '
000B2E 6E05           01198     movWF       temp_wr
MPASM 5.77                 THE_REAL_DEAL.ASM   12-13-2019  1:09:44         PAGE 24


LOC  OBJECT CODE     LINE SOURCE TEXT
  VALUE

000B30 EC?? F???      01199     call        d_write
000B34 0E20           01200     movLW       A' '
000B36 6E05           01201     movWF       temp_wr
000B38 EC?? F???      01202     call        d_write
000B3C 0E20           01203     movLW       A' '
000B3E 6E05           01204     movWF       temp_wr
000B40 EC?? F???      01205     call        d_write
000B44 0E20           01206     movLW       A' '
000B46 6E05           01207     movWF       temp_wr
000B48 EC?? F???      01208     call        d_write
                      01209     
000B4C EC?? F???      01210     call        LCDLine_2
000B50 0E43           01211     movLW       A'C'
000B52 6E05           01212     movWF       temp_wr
000B54 EC?? F???      01213     call        d_write
000B58 0E4F           01214     movLW       A'O'
000B5A 6E05           01215     movWF       temp_wr
000B5C EC?? F???      01216     call        d_write
000B60 0E52           01217     movLW       A'R'
000B62 6E05           01218     movWF       temp_wr
000B64 EC?? F???      01219     call        d_write
000B68 0E52           01220     movLW       A'R'
000B6A 6E05           01221     movWF       temp_wr
000B6C EC?? F???      01222     call        d_write
000B70 0E45           01223     movLW       A'E'
000B72 6E05           01224     movWF       temp_wr
000B74 EC?? F???      01225     call        d_write
000B78 0E43           01226     movLW       A'C'
000B7A 6E05           01227     movWF       temp_wr
000B7C EC?? F???      01228     call        d_write
000B80 0E54           01229     movLW       A'T'
000B82 6E05           01230     movWF       temp_wr
000B84 EC?? F???      01231     call        d_write
000B88 0E20           01232     movLW       A' '
000B8A 6E05           01233     movWF       temp_wr
000B8C EC?? F???      01234     call        d_write
000B90 0E23           01235     movLW       A'#'
000B92 6E05           01236     movWF       temp_wr
000B94 EC?? F???      01237     call        d_write
000B98 0E20           01238     movLW       A' '
000B9A 6E05           01239     movWF       temp_wr
000B9C EC?? F???      01240     call        d_write
000BA0 0E42           01241     movLW       A'B'
000BA2 6E05           01242     movWF       temp_wr
000BA4 EC?? F???      01243     call        d_write
000BA8 0E55           01244     movLW       A'U'
000BAA 6E05           01245     movWF       temp_wr
000BAC EC?? F???      01246     call        d_write
000BB0 0E54           01247     movLW       A'T'
000BB2 6E05           01248     movWF       temp_wr
000BB4 EC?? F???      01249     call        d_write
000BB8 0E20           01250     movLW       A' '
000BBA 6E05           01251     movWF       temp_wr
MPASM 5.77                 THE_REAL_DEAL.ASM   12-13-2019  1:09:44         PAGE 25


LOC  OBJECT CODE     LINE SOURCE TEXT
  VALUE

000BBC EC?? F???      01252     call        d_write
000BC0 0E20           01253     movLW       A' '
000BC2 6E05           01254     movWF       temp_wr
000BC4 EC?? F???      01255     call        d_write
000BC8 0E20           01256     movLW       A' '
000BCA 6E05           01257     movWF       temp_wr
000BCC EC?? F???      01258     call        d_write
                      01259     
                      01260     ;delay
000BD0 0E10           01261     movLW       10
000BD2 6E00           01262     movWF       Count2
000BD4 6A01           01263     clrF        Count1
000BD6 6A02           01264     clrF        Count0
000BD8                01265 WLoo9
000BD8 2E02           01266     decFsZ      Count0
000BDA D???           01267     bra         WLoo9
000BDC 2E01           01268     decFsZ      Count1
000BDE D???           01269     bra         WLoo9
000BE0 2E00           01270     decFsZ      Count2
000BE2 D???           01271     bra         WLoo9   
                      01272     
                      01273     ;return home
000BE4 0E02           01274     MOVLW 2H 
000BE6 6E05           01275     MOVWF temp_wr
000BE8 EC?? F???      01276     call i_write
                      01277 ;Displays " WRONG POSITION "
                      01278         ; ""
000BEC EC?? F???      01279     call        LCDLine_1
000BF0 0E20           01280     movLW       A' '
000BF2 6E05           01281     movWF       temp_wr
000BF4 EC?? F???      01282     call        d_write
000BF8 0E57           01283     movLW       A'W'
000BFA 6E05           01284     movWF       temp_wr
000BFC EC?? F???      01285     call        d_write
000C00 0E52           01286     movLW       A'R'
000C02 6E05           01287     movWF       temp_wr
000C04 EC?? F???      01288     call        d_write
000C08 0E4F           01289     movLW       A'O'
000C0A 6E05           01290     movWF       temp_wr
000C0C EC?? F???      01291     call        d_write
000C10 0E4E           01292     movLW       A'N'
000C12 6E05           01293     movWF       temp_wr
000C14 EC?? F???      01294     call        d_write
000C18 0E47           01295     movLW       A'G'
000C1A 6E05           01296     movWF       temp_wr
000C1C EC?? F???      01297     call        d_write
000C20 0E20           01298     movLW       A' '
000C22 6E05           01299     movWF       temp_wr
000C24 EC?? F???      01300     call        d_write
000C28 0E50           01301     movLW       A'P'
000C2A 6E05           01302     movWF       temp_wr
000C2C EC?? F???      01303     call        d_write
000C30 0E4F           01304     movLW       A'O'
MPASM 5.77                 THE_REAL_DEAL.ASM   12-13-2019  1:09:44         PAGE 26


LOC  OBJECT CODE     LINE SOURCE TEXT
  VALUE

000C32 6E05           01305     movWF       temp_wr
000C34 EC?? F???      01306     call        d_write
000C38 0E53           01307     movLW       A'S'
000C3A 6E05           01308     movWF       temp_wr
000C3C EC?? F???      01309     call        d_write
000C40 0E49           01310     movLW       A'I'
000C42 6E05           01311     movWF       temp_wr
000C44 EC?? F???      01312     call        d_write
000C48 0E54           01313     movLW       A'T'
000C4A 6E05           01314     movWF       temp_wr
000C4C EC?? F???      01315     call        d_write
000C50 0E49           01316     movLW       A'I'
000C52 6E05           01317     movWF       temp_wr
000C54 EC?? F???      01318     call        d_write
000C58 0E4F           01319     movLW       A'O'
000C5A 6E05           01320     movWF       temp_wr
000C5C EC?? F???      01321     call        d_write
000C60 0E4E           01322     movLW       A'N'
000C62 6E05           01323     movWF       temp_wr
000C64 EC?? F???      01324     call        d_write
000C68 0E20           01325     movLW       A' '
000C6A 6E05           01326     movWF       temp_wr
000C6C EC?? F???      01327     call        d_write
                      01328     
000C70 EC?? F???      01329     call        LCDLine_2
000C74 0E20           01330     movLW       A' '
000C76 6E05           01331     movWF       temp_wr
000C78 EC?? F???      01332     call        d_write
000C7C 0E20           01333     movLW       A' '
000C7E 6E05           01334     movWF       temp_wr
000C80 EC?? F???      01335     call        d_write
000C84 0E20           01336     movLW       A' '
000C86 6E05           01337     movWF       temp_wr
000C88 EC?? F???      01338     call        d_write
000C8C 0E20           01339     movLW       A' '
000C8E 6E05           01340     movWF       temp_wr
000C90 EC?? F???      01341     call        d_write
000C94 0E20           01342     movLW       A' '
000C96 6E05           01343     movWF       temp_wr
000C98 EC?? F???      01344     call        d_write
000C9C 0E20           01345     movLW       A' '
000C9E 6E05           01346     movWF       temp_wr
000CA0 EC?? F???      01347     call        d_write
000CA4 0E20           01348     movLW       A' '
000CA6 6E05           01349     movWF       temp_wr
000CA8 EC?? F???      01350     call        d_write
000CAC 0E20           01351     movLW       A' '
000CAE 6E05           01352     movWF       temp_wr
000CB0 EC?? F???      01353     call        d_write
000CB4 0E20           01354     movLW       A' '
000CB6 6E05           01355     movWF       temp_wr
000CB8 EC?? F???      01356     call        d_write
000CBC 0E20           01357     movLW       A' '
MPASM 5.77                 THE_REAL_DEAL.ASM   12-13-2019  1:09:44         PAGE 27


LOC  OBJECT CODE     LINE SOURCE TEXT
  VALUE

000CBE 6E05           01358     movWF       temp_wr
000CC0 EC?? F???      01359     call        d_write
000CC4 0E20           01360     movLW       A' '
000CC6 6E05           01361     movWF       temp_wr
000CC8 EC?? F???      01362     call        d_write
000CCC 0E20           01363     movLW       A' '
000CCE 6E05           01364     movWF       temp_wr
000CD0 EC?? F???      01365     call        d_write
000CD4 0E20           01366     movLW       A' '
000CD6 6E05           01367     movWF       temp_wr
000CD8 EC?? F???      01368     call        d_write
000CDC 0E20           01369     movLW       A' '
000CDE 6E05           01370     movWF       temp_wr
000CE0 EC?? F???      01371     call        d_write
000CE4 0E20           01372     movLW       A' '
000CE6 6E05           01373     movWF       temp_wr
000CE8 EC?? F???      01374     call        d_write
000CEC 0E20           01375     movLW       A' '
000CEE 6E05           01376     movWF       temp_wr
000CF0 EC?? F???      01377     call        d_write
                      01378     
                      01379     ;delay
000CF4 0E10           01380     movLW       10
000CF6 6E00           01381     movWF       Count2
000CF8 6A01           01382     clrF        Count1
000CFA 6A02           01383     clrF        Count0
000CFC                01384 WLoo10
000CFC 2E02           01385     decFsZ      Count0
000CFE D???           01386     bra         WLoo10
000D00 2E01           01387     decFsZ      Count1
000D02 D???           01388     bra         WLoo10
000D04 2E00           01389     decFsZ      Count2
000D06 D???           01390     bra         WLoo10  
                      01391     
                      01392     ;return home
000D08 0E02           01393     MOVLW 2H 
000D0A 6E05           01394     MOVWF temp_wr
000D0C EC?? F???      01395     call i_write
                      01396     
                      01397     
                      01398 ;*******************************************************************************
                      01399 ;Storing Guesses with buttons
                      01400 ;*******************************************************************************
                      01401     ;selecting SW3 to digital port
000D10 010F           01402     MOVLB 0xF
000D12 0EF0           01403     MOVLW 0xF0
000D14 6F39           01404     MOVWF ANSELB
000D16 0ECF           01405     MOVLW 0xCF
000D18 6E93           01406     MOVWF TRISB
                      01407     
                      01408     ;initialize locations for guesses
000D1A 0103           01409     MOVLB 0x3
Warning[207]: Found label after column 1. (GUESS1)
MPASM 5.77                 THE_REAL_DEAL.ASM   12-13-2019  1:09:44         PAGE 28


LOC  OBJECT CODE     LINE SOURCE TEXT
  VALUE

  00000000            01410     GUESS1 EQU 0x00
Warning[207]: Found label after column 1. (GUESS2)
  00000001            01411     GUESS2 EQU 0x01
Warning[207]: Found label after column 1. (GUESS3)
  00000002            01412     GUESS3 EQU 0x02
Warning[207]: Found label after column 1. (GUESS4)
  00000003            01413     GUESS4 EQU 0x03
Warning[207]: Found label after column 1. (CNT)
  00000004            01414     CNT EQU 0X04
Warning[207]: Found label after column 1. (DisplayCNT)
  00000005            01415     DisplayCNT EQU 0x05
Warning[207]: Found label after column 1. (GUESS_COUNTER)
  00000006            01416     GUESS_COUNTER EQU 0x06
Warning[207]: Found label after column 1. (COUNT_BLACK)
  00000057            01417     COUNT_BLACK EQU 0x57
Warning[207]: Found label after column 1. (COUNT_WHITE)
  00000067            01418     COUNT_WHITE EQU 0x67
Warning[207]: Found label after column 1. (INNERCOUNTER)
  00000007            01419     INNERCOUNTER EQU 0x07
                      01420  
000D1C 0E00           01421     MOVLW 0H
000D1E 6F00           01422     MOVWF GUESS1, 1
000D20 6F01           01423     MOVWF GUESS2, 1
000D22 6F02           01424     MOVWF GUESS3, 1
000D24 6F03           01425     MOVWF GUESS4, 1
000D26 6F04           01426     MOVWF CNT, 1
000D28 6F57           01427     MOVWF COUNT_BLACK, 1
000D2A 6F67           01428     MOVWF COUNT_WHITE, 1
                      01429     ;ASCII conversion
000D2C 0E30           01430     MOVLW 30H
000D2E 6F05           01431     MOVWF DisplayCNT, 1
000D30 0E31           01432     MOVLW 31H
000D32 6F06           01433     MOVWF GUESS_COUNTER, 1
                      01434     ;initializing fsr register locations. 
000D34 EE03 F012      01435     LFSR 0, 0x312
000D38 EF?? F???      01436     GOTO GUESS_DIGITS
                      01437     
000D3C                01438 GUESS_DIGITS 
                      01439     ;reset black and white counts (for looping)
000D3C 0E00           01440     MOVLW 0H
000D3E 6F57           01441     MOVWF COUNT_BLACK, 1
000D40 6F67           01442     MOVWF COUNT_WHITE, 1
                      01443     ;clear display
000D42 0E02           01444     MOVLW 2H
000D44 6E05           01445     MOVWF temp_wr
000D46 EC?? F???      01446     call i_write
                      01447     
                      01448     ;Line 1: GUESS THE DIGITS
000D4A EC?? F???      01449     call        LCDLine_1
000D4E 0E47           01450     movLW       A'G'
000D50 6E05           01451     movWF       temp_wr
000D52 EC?? F???      01452     call        d_write
000D56 0E55           01453     movLW       A'U'
MPASM 5.77                 THE_REAL_DEAL.ASM   12-13-2019  1:09:44         PAGE 29


LOC  OBJECT CODE     LINE SOURCE TEXT
  VALUE

000D58 6E05           01454     movWF       temp_wr
000D5A EC?? F???      01455     call        d_write
000D5E 0E45           01456     movLW       A'E'
000D60 6E05           01457     movWF       temp_wr
000D62 EC?? F???      01458     call        d_write
000D66 0E53           01459     movLW       A'S'
000D68 6E05           01460     movWF       temp_wr
000D6A EC?? F???      01461     call        d_write
000D6E 0E53           01462     movLW       A'S'
000D70 6E05           01463     movWF       temp_wr
000D72 EC?? F???      01464     call        d_write
000D76 0E20           01465     movLW       A' '
000D78 6E05           01466     movWF       temp_wr
000D7A EC?? F???      01467     call        d_write
000D7E 0E54           01468     movLW       A'T'
000D80 6E05           01469     movWF       temp_wr
000D82 EC?? F???      01470     call        d_write
000D86 0E48           01471     movLW       A'H'
000D88 6E05           01472     movWF       temp_wr
000D8A EC?? F???      01473     call        d_write
000D8E 0E45           01474     movLW       A'E'
000D90 6E05           01475     movWF       temp_wr
000D92 EC?? F???      01476     call        d_write
000D96 0E20           01477     movLW       A' '
000D98 6E05           01478     movWF       temp_wr
000D9A EC?? F???      01479     call        d_write
000D9E 0E44           01480     movLW       A'D'
000DA0 6E05           01481     movWF       temp_wr
000DA2 EC?? F???      01482     call        d_write
000DA6 0E49           01483     movLW       A'I'
000DA8 6E05           01484     movWF       temp_wr
000DAA EC?? F???      01485     call        d_write
000DAE 0E47           01486     movLW       A'G'
000DB0 6E05           01487     movWF       temp_wr
000DB2 EC?? F???      01488     call        d_write
000DB6 0E49           01489     movLW       A'I'
000DB8 6E05           01490     movWF       temp_wr
000DBA EC?? F???      01491     call        d_write
000DBE 0E54           01492     movLW       A'T'
000DC0 6E05           01493     movWF       temp_wr
000DC2 EC?? F???      01494     call        d_write
000DC6 0E53           01495     movLW       A'S'
000DC8 6E05           01496     movWF       temp_wr
000DCA EC?? F???      01497     call        d_write
                      01498     
000DCE EC?? F???      01499     call        LCDLine_2
000DD2 0E20           01500     movLW       A' '
000DD4 6E05           01501     movWF       temp_wr
000DD6 EC?? F???      01502     call        d_write
000DDA 0E20           01503     movLW       A' '
000DDC 6E05           01504     movWF       temp_wr
000DDE EC?? F???      01505     call        d_write
000DE2 0E20           01506     movLW       A' '
MPASM 5.77                 THE_REAL_DEAL.ASM   12-13-2019  1:09:44         PAGE 30


LOC  OBJECT CODE     LINE SOURCE TEXT
  VALUE

000DE4 6E05           01507     movWF       temp_wr
000DE6 EC?? F???      01508     call        d_write
000DEA 0E20           01509     movLW       A' '
000DEC 6E05           01510     movWF       temp_wr
000DEE EC?? F???      01511     call        d_write
000DF2 0E20           01512     movLW       A' '
000DF4 6E05           01513     movWF       temp_wr
000DF6 EC?? F???      01514     call        d_write
000DFA 0E20           01515     movLW       A' '
000DFC 6E05           01516     movWF       temp_wr
000DFE EC?? F???      01517     call        d_write
000E02 0E20           01518     movLW       A' '
000E04 6E05           01519     movWF       temp_wr
000E06 EC?? F???      01520     call        d_write
000E0A 0E20           01521     movLW       A' '
000E0C 6E05           01522     movWF       temp_wr
000E0E EC?? F???      01523     call        d_write
000E12 0E20           01524     movLW       A' '
000E14 6E05           01525     movWF       temp_wr
000E16 EC?? F???      01526     call        d_write
000E1A 0E20           01527     movLW       A' '
000E1C 6E05           01528     movWF       temp_wr
000E1E EC?? F???      01529     call        d_write
000E22 0E20           01530     movLW       A' '
000E24 6E05           01531     movWF       temp_wr
000E26 EC?? F???      01532     call        d_write
000E2A 0E20           01533     movLW       A' '
000E2C 6E05           01534     movWF       temp_wr
000E2E EC?? F???      01535     call        d_write
000E32 0E20           01536     movLW       A' '
000E34 6E05           01537     movWF       temp_wr
000E36 EC?? F???      01538     call        d_write
000E3A 0E20           01539     movLW       A' '
000E3C 6E05           01540     movWF       temp_wr
000E3E EC?? F???      01541     call        d_write
000E42 0E20           01542     movLW       A' '
000E44 6E05           01543     movWF       temp_wr
000E46 EC?? F???      01544     call        d_write
000E4A 0E20           01545     movLW       A' '
000E4C 6E05           01546     movWF       temp_wr
000E4E EC?? F???      01547     call        d_write
                      01548     
                      01549     ;reset values once it reaches max digit of 5
Warning[207]: Found label after column 1. (RESET_CNT1)
000E52                01550     RESET_CNT1
000E52 0E30           01551         MOVLW 30H
000E54 6F05           01552         MOVWF DisplayCNT, 1
000E56 0E06           01553         MOVLW 6H
000E58 6F04           01554         MOVWF CNT, 1
                      01555         
                      01556     ;Selecting Digit 1
Warning[207]: Found label after column 1. (Select_Digit1)
000E5A                01557     Select_Digit1
MPASM 5.77                 THE_REAL_DEAL.ASM   12-13-2019  1:09:44         PAGE 31


LOC  OBJECT CODE     LINE SOURCE TEXT
  VALUE

                      01558         ;enables cursor
000E5A EC?? F???      01559         call LCDLine_2
000E5E 0E0F           01560         MOVLW 0FH
000E60 6E05           01561         MOVWF temp_wr
000E62 EC?? F???      01562         call i_write
                      01563         
                      01564         ;display number on screen
000E66 5105           01565         movF    DisplayCNT, 0, 1
000E68 6E05           01566         movWF   temp_wr
000E6A EC?? F???      01567         call    d_write
                      01568         
                      01569         ;shift to left
000E6E 0E10           01570         MOVLW 10H
000E70 6E05           01571         MOVWF temp_wr
000E72 EC?? F???      01572         call i_write
                      01573         
                      01574         ;check if player wants to select digit
000E76 A081           01575         BTFSS PORTB, 0
000E78 D???           01576         BRA SW3_RELEASE1
000E7A D???           01577         BRA SW2_PRESS1
Warning[207]: Found label after column 1. (SW2_PRESS1)
000E7C                01578         SW2_PRESS1
000E7C A880           01579             BTFSS PORTA, 4          
000E7E D???           01580             BRA SW2_RELEASE1
000E80 D???           01581             BRA Select_Digit1
                      01582         
                      01583             ;waits for release, the updates counters
Warning[207]: Found label after column 1. (SW2_RELEASE1)
000E82                01584     SW2_RELEASE1
000E82 A880           01585         BTFSS PORTA, 4
000E84 D???           01586         BRA SW2_RELEASE1
000E86 2B05           01587         INCF DisplayCNT, 1, 1
000E88 0704           01588         DECF CNT, 1, 1
                      01589         
000E8A E0??           01590         BZ RESET_CNT1
000E8C EF?? F???      01591         GOTO Select_Digit1      
                      01592         
                      01593         ;officalizes values once SW3 is released
Warning[207]: Found label after column 1. (SW3_RELEASE1)
000E90                01594     SW3_RELEASE1
000E90 5105           01595         MOVF DisplayCNT, 0, 1       ;move value from sw2 into GUESS1
000E92 6F00           01596         MOVWF GUESS1, 1
000E94 A081           01597         BTFSS PORTB, 0
000E96 D???           01598         BRA SW3_RELEASE1
000E98 0000           01599         NOP
                      01600         
                      01601 ;*******************************************************************************
                      01602         ;Selecting Digit 2
                      01603         
                      01604         ;move cursor to right
000E9A 0E14           01605         MOVLW 14H
000E9C 6E05           01606         MOVWF temp_wr
000E9E EC?? F???      01607         call i_write
MPASM 5.77                 THE_REAL_DEAL.ASM   12-13-2019  1:09:44         PAGE 32


LOC  OBJECT CODE     LINE SOURCE TEXT
  VALUE

                      01608         
Warning[207]: Found label after column 1. (RESET_CNT2)
000EA2                01609     RESET_CNT2
000EA2 0E30           01610         MOVLW 30H
000EA4 6F05           01611         MOVWF DisplayCNT, 1
000EA6 0E06           01612         MOVLW 6H
000EA8 6F04           01613         MOVWF CNT, 1
                      01614         
Warning[207]: Found label after column 1. (Select_Digit2)
000EAA                01615     Select_Digit2
000EAA 5105           01616         movF    DisplayCNT, 0, 1
000EAC 6E05           01617         movWF   temp_wr
000EAE EC?? F???      01618         call    d_write
                      01619         
                      01620         ;shift to left
000EB2 0E10           01621         MOVLW 10H
000EB4 6E05           01622         MOVWF temp_wr
000EB6 EC?? F???      01623         call i_write
                      01624         
000EBA A081           01625         BTFSS PORTB, 0      ;check if player wants to select
000EBC D???           01626         BRA SW3_RELEASE2
000EBE A880           01627         BTFSS PORTA, 4      
000EC0 D???           01628         BRA SW2_RELEASE2
000EC2 D???           01629         BRA Select_Digit2
                      01630         
Warning[207]: Found label after column 1. (SW2_RELEASE2)
000EC4                01631     SW2_RELEASE2
000EC4 A880           01632         BTFSS PORTA, 4
000EC6 D???           01633         BRA SW2_RELEASE2
000EC8 2B05           01634         INCF DisplayCNT, 1, 1
000ECA 0704           01635         DECF CNT, 1, 1
                      01636         
000ECC E0??           01637         BZ RESET_CNT2
000ECE EF?? F???      01638         GOTO Select_Digit2      
                      01639         
Warning[207]: Found label after column 1. (SW3_RELEASE2)
000ED2                01640     SW3_RELEASE2
000ED2 5105           01641         MOVF DisplayCNT, 0, 1       ;move value from sw2 into GUESS2
000ED4 6F01           01642         MOVWF GUESS2, 1
000ED6 A081           01643         BTFSS PORTB, 0
000ED8 D???           01644         BRA SW3_RELEASE2
000EDA 0000           01645         NOP   
                      01646 ;*******************************************************************************
                      01647         ;Selecting Digit 3
                      01648         
                      01649         ;move cursor to right
000EDC 0E14           01650         MOVLW 14H
000EDE 6E05           01651         MOVWF temp_wr
000EE0 EC?? F???      01652         call i_write
                      01653         
Warning[207]: Found label after column 1. (RESET_CNT3)
000EE4                01654     RESET_CNT3
000EE4 0E30           01655         MOVLW 30H
MPASM 5.77                 THE_REAL_DEAL.ASM   12-13-2019  1:09:44         PAGE 33


LOC  OBJECT CODE     LINE SOURCE TEXT
  VALUE

000EE6 6F05           01656         MOVWF DisplayCNT, 1
000EE8 0E06           01657         MOVLW 6H
000EEA 6F04           01658         MOVWF CNT, 1
                      01659         
Warning[207]: Found label after column 1. (Select_Digit3)
000EEC                01660     Select_Digit3
000EEC 5105           01661         movF    DisplayCNT, 0, 1
000EEE 6E05           01662         movWF   temp_wr
000EF0 EC?? F???      01663         call    d_write
                      01664         
                      01665         ;shift to left
000EF4 0E10           01666         MOVLW 10H
000EF6 6E05           01667         MOVWF temp_wr
000EF8 EC?? F???      01668         call i_write
                      01669         
000EFC A081           01670         BTFSS PORTB, 0      ;check if player wants to select
000EFE D???           01671         BRA SW3_RELEASE3
000F00 A880           01672         BTFSS PORTA, 4      
000F02 D???           01673         BRA SW2_RELEASE3
000F04 D???           01674         BRA Select_Digit3
                      01675         
Warning[207]: Found label after column 1. (SW2_RELEASE3)
000F06                01676     SW2_RELEASE3
000F06 A880           01677         BTFSS PORTA, 4
000F08 D???           01678         BRA SW2_RELEASE3
000F0A 2B05           01679         INCF DisplayCNT, 1, 1
000F0C 0704           01680         DECF CNT, 1, 1
                      01681         
000F0E E0??           01682         BZ RESET_CNT3
000F10 EF?? F???      01683         GOTO Select_Digit3      
                      01684         
Warning[207]: Found label after column 1. (SW3_RELEASE3)
000F14                01685     SW3_RELEASE3
000F14 5105           01686         MOVF DisplayCNT, 0, 1    
000F16 6F02           01687         MOVWF GUESS3, 1
000F18 A081           01688         BTFSS PORTB, 0
000F1A D???           01689         BRA SW3_RELEASE3
000F1C 0000           01690         NOP
                      01691 ;*******************************************************************************
                      01692         ;Selecting Digit 4
                      01693         
                      01694         ;move cursor to right
000F1E 0E14           01695         MOVLW 14H
000F20 6E05           01696         MOVWF temp_wr
000F22 EC?? F???      01697         call i_write
                      01698         
Warning[207]: Found label after column 1. (RESET_CNT4)
000F26                01699     RESET_CNT4
000F26 0E30           01700         MOVLW 30H
000F28 6F05           01701         MOVWF DisplayCNT, 1
000F2A 0E06           01702         MOVLW 6H
000F2C 6F04           01703         MOVWF CNT, 1
                      01704         
MPASM 5.77                 THE_REAL_DEAL.ASM   12-13-2019  1:09:44         PAGE 34


LOC  OBJECT CODE     LINE SOURCE TEXT
  VALUE

Warning[207]: Found label after column 1. (Select_Digit4)
000F2E                01705     Select_Digit4
000F2E 5105           01706         movF    DisplayCNT, 0, 1
000F30 6E05           01707         movWF   temp_wr
000F32 EC?? F???      01708         call    d_write
                      01709         
                      01710         ;shift to left
000F36 0E10           01711         MOVLW 10H
000F38 6E05           01712         MOVWF temp_wr
000F3A EC?? F???      01713         call i_write
                      01714         
000F3E A081           01715         BTFSS PORTB, 0      ;check if player wants to select
000F40 D???           01716         BRA SW3_RELEASE4
000F42 A880           01717         BTFSS PORTA, 4      
000F44 D???           01718         BRA SW2_RELEASE4
000F46 D???           01719         BRA Select_Digit4
                      01720         
Warning[207]: Found label after column 1. (SW2_RELEASE4)
000F48                01721     SW2_RELEASE4
000F48 A880           01722         BTFSS PORTA, 4
000F4A D???           01723         BRA SW2_RELEASE4
000F4C 2B05           01724         INCF DisplayCNT, 1, 1
000F4E 0704           01725         DECF CNT, 1, 1
                      01726         
000F50 E0??           01727         BZ RESET_CNT4
000F52 EF?? F???      01728         GOTO Select_Digit4
                      01729         
Warning[207]: Found label after column 1. (SW3_RELEASE4)
000F56                01730     SW3_RELEASE4
000F56 5105           01731         MOVF DisplayCNT, 0, 1
000F58 6F03           01732         MOVWF GUESS4, 1
000F5A A081           01733         BTFSS PORTB, 0
000F5C D???           01734         BRA SW3_RELEASE4
000F5E 0000           01735         NOP
                      01736 
                      01737     ;Convert back from ASCII
000F60 0E30           01738     MOVLW 30H
000F62 5F00           01739     SUBWF GUESS1, 1, 1
000F64 5F01           01740     SUBWF GUESS2, 1, 1
000F66 5F02           01741     SUBWF GUESS3, 1, 1
000F68 5F03           01742     SUBWF GUESS4, 1, 1
000F6A EF?? F???      01743     GOTO BLK_CNT
                      01744 ;*******************************************************************************
                      01745 ;Black and White count   
                      01746 ;*******************************************************************************
000F6E                01747 BLK_CNT  
                      01748     ;reg1 - reg4 for code
Warning[207]: Found label after column 1. (REG1)
  00000037            01749     REG1 EQU 0x37   ;MSB
Warning[207]: Found label after column 1. (REG2)
  00000038            01750     REG2 EQU 0x38
Warning[207]: Found label after column 1. (REG3)
  00000039            01751     REG3 EQU 0x39
MPASM 5.77                 THE_REAL_DEAL.ASM   12-13-2019  1:09:44         PAGE 35


LOC  OBJECT CODE     LINE SOURCE TEXT
  VALUE

Warning[207]: Found label after column 1. (REG4)
  0000003A            01752     REG4 EQU 0x3A
                      01753     ;reg5 - reg8 for guess
Warning[207]: Found label after column 1. (REG5)
  00000047            01754     REG5 EQU 0x47
Warning[207]: Found label after column 1. (REG6)
  00000048            01755     REG6 EQU 0x48
Warning[207]: Found label after column 1. (REG7)
  00000049            01756     REG7 EQU 0x49
Warning[207]: Found label after column 1. (REG8)
  0000004A            01757     REG8 EQU 0x4A
                      01758  
                      01759     ;Set registers for code with code generated
000F6E 5117           01760     MOVF DIG1, 0, 1         ;move dig1 into working register
000F70 6F37           01761     MOVWF REG1, 1
000F72 5118           01762     MOVF DIG2, 0, 1
000F74 6F38           01763     MOVWF REG2, 1
000F76 5119           01764     MOVF DIG3, 0, 1
000F78 6F39           01765     MOVWF REG3, 1
000F7A 511A           01766     MOVF DIG4, 0, 1
000F7C 6F3A           01767     MOVWF REG4, 1
                      01768     
                      01769     ;Store guesses. 
000F7E 5100           01770     MOVF GUESS1, 0, 1
000F80 6F47           01771     MOVWF REG5, 1
000F82 5101           01772     MOVF GUESS2, 0, 1
000F84 6F48           01773     MOVWF REG6, 1
000F86 5102           01774     MOVF GUESS3, 0, 1
000F88 6F49           01775     MOVWF REG7, 1
000F8A 5103           01776     MOVF GUESS4, 0, 1
000F8C 6F4A           01777     MOVWF REG8, 1
                      01778     
000F8E EF?? F???      01779     GOTO CHECK1
                      01780     
                      01781 ;if current check funtion branches, run one of these according 
                      01782 ;to which digit it is comparing. 
000F92                01783 INCREMENTCOUNT1
000F92 2B57           01784     INCF COUNT_BLACK, 1, 1
000F94 0EFF           01785     MOVLW -1H               ;this is for making sure that we never branch
000F96 6F37           01786     MOVWF REG1, 1           ;to zero again, so we put an uncomparable value. 
000F98 0EFA           01787     MOVLW -6H
000F9A 6F47           01788     MOVWF REG5, 1
000F9C EF?? F???      01789     GOTO CHECK2
                      01790  
000FA0                01791 INCREMENTCOUNT2
000FA0 2B57           01792     INCF COUNT_BLACK, 1, 1
000FA2 0EFF           01793     MOVLW -1H
000FA4 6F38           01794     MOVWF REG2, 1
000FA6 0EFA           01795     MOVLW -6H
000FA8 6F48           01796     MOVWF REG6, 1
000FAA EF?? F???      01797     GOTO CHECK3
                      01798     
000FAE                01799 INCREMENTCOUNT3
MPASM 5.77                 THE_REAL_DEAL.ASM   12-13-2019  1:09:44         PAGE 36


LOC  OBJECT CODE     LINE SOURCE TEXT
  VALUE

000FAE 2B57           01800     INCF COUNT_BLACK, 1, 1
000FB0 0EFF           01801     MOVLW -1H
000FB2 6F39           01802     MOVWF REG3, 1
000FB4 0EFA           01803     MOVLW -6H
000FB6 6F49           01804     MOVWF REG7, 1
000FB8 EF?? F???      01805     GOTO CHECK4
                      01806     
000FBC                01807 INCREMENTCOUNT4
000FBC 2B57           01808     INCF COUNT_BLACK, 1, 1
000FBE 0EFF           01809     MOVLW -1H
000FC0 6F3A           01810     MOVWF REG4, 1
000FC2 0EFA           01811     MOVLW -6H
000FC4 6F4A           01812     MOVWF REG8, 1
000FC6 EF?? F???      01813     GOTO DONE1
                      01814     
                      01815 ;Using subtraction as a comparison operator. 
                      01816 ;A-B = 0 shows that values are equal. 
000FCA                01817 CHECK1
000FCA 5137           01818     MOVF REG1, 0, 1     ;move value of reg1 into working register.
000FCC 5D47           01819     SUBWF REG5, 0, 1    ;subtract the comparing value
000FCE E0??           01820     BZ INCREMENTCOUNT1  ;if zero, branch to increment black count. 
000FD0 EF?? F???      01821     GOTO CHECK2         ;check next digit
                      01822     
000FD4                01823 CHECK2
000FD4 5138           01824     MOVF REG2, 0, 1
000FD6 5D48           01825     SUBWF REG6, 0, 1
000FD8 E0??           01826     BZ INCREMENTCOUNT2
000FDA EF?? F???      01827     GOTO CHECK3
                      01828     
000FDE                01829 CHECK3 
000FDE 5139           01830     MOVF REG3, 0, 1
000FE0 5D49           01831     SUBWF REG7, 0, 1
000FE2 E0??           01832     BZ INCREMENTCOUNT3
000FE4 EF?? F???      01833     GOTO CHECK4
                      01834     
000FE8                01835 CHECK4
000FE8 513A           01836     MOVF REG4, 0, 1
000FEA 5D4A           01837     SUBWF REG8, 0, 1
000FEC E0??           01838     BZ INCREMENTCOUNT4
                      01839     
000FEE                01840 DONE1
000FEE EF?? F???      01841     GOTO WT_CNT
                      01842     
                      01843     
                      01844 ;WT_CNT
                      01845 ;Comapres code digit with every other guess digit that is not in the 
                      01846 ;same position. 
000FF2                01847 WT_CNT
000FF2 EF?? F???      01848    GOTO CHECKW1
                      01849 
                      01850 ;==============================================================================
                      01851 ;for checkw1
000FF6                01852 INCREMENT_WHITE2_1
MPASM 5.77                 THE_REAL_DEAL.ASM   12-13-2019  1:09:44         PAGE 37


LOC  OBJECT CODE     LINE SOURCE TEXT
  VALUE

000FF6 2B67           01853    INCF COUNT_WHITE, 1, 1
000FF8 0EFF           01854    MOVLW -1H                ;To keep from double counting.
000FFA 6F38           01855    MOVWF REG2, 1
000FFC EF?? F???      01856    GOTO CHECKW2
                      01857    
001000                01858 INCREMENT_WHITE3_1
001000 2B67           01859    INCF COUNT_WHITE, 1, 1
001002 0EFF           01860    MOVLW -1H
001004 6F39           01861    MOVWF REG3, 1
001006 EF?? F???      01862    GOTO CHECKW2
                      01863    
00100A                01864 INCREMENT_WHITE4_1
00100A 2B67           01865    INCF COUNT_WHITE, 1, 1
00100C 0EFF           01866    MOVLW -1H
00100E 6F3A           01867    MOVWF REG4, 1
001010 EF?? F???      01868    GOTO CHECKW2
                      01869    
                      01870 ;==============================================================================
                      01871 ;for checkw2
001014                01872 INCREMENT_WHITE1_2
001014 2B67           01873    INCF COUNT_WHITE, 1, 1
001016 0EFF           01874    MOVLW -1H    
001018 6F37           01875    MOVWF REG1, 1                 
00101A EF?? F???      01876    GOTO CHECKW3
00101E                01877 INCREMENT_WHITE3_2
00101E 2B67           01878    INCF COUNT_WHITE, 1, 1
001020 0EFF           01879    MOVLW -1H    
001022 6F39           01880    MOVWF REG3, 1                
001024 EF?? F???      01881    GOTO CHECKW3
001028                01882 INCREMENT_WHITE4_2
001028 2B67           01883    INCF COUNT_WHITE, 1, 1
00102A 0EFF           01884    MOVLW -1H    
00102C 6F3A           01885    MOVWF REG4, 1                 
00102E EF?? F???      01886    GOTO CHECKW3
                      01887    
                      01888 ;==============================================================================
                      01889 ;for checkw3
001032                01890 INCREMENT_WHITE1_3
001032 2B67           01891    INCF COUNT_WHITE, 1, 1
001034 0EFF           01892    MOVLW -1H    
001036 6F37           01893    MOVWF REG1, 1                 
001038 EF?? F???      01894    GOTO CHECKW4
00103C                01895 INCREMENT_WHITE2_3
00103C 2B67           01896    INCF COUNT_WHITE, 1, 1
00103E 0EFF           01897    MOVLW -1H
001040 6F38           01898    MOVWF REG2, 1
001042 EF?? F???      01899    GOTO CHECKW4
001046                01900 INCREMENT_WHITE4_3
001046 2B67           01901    INCF COUNT_WHITE, 1, 1
001048 0EFF           01902    MOVLW -1H    
00104A 6F3A           01903    MOVWF REG4, 1                 
00104C EF?? F???      01904    GOTO CHECKW4
                      01905    
MPASM 5.77                 THE_REAL_DEAL.ASM   12-13-2019  1:09:44         PAGE 38


LOC  OBJECT CODE     LINE SOURCE TEXT
  VALUE

                      01906 ;==============================================================================
                      01907 ;for checkw4
001050                01908 INCREMENT_WHITE1_4
001050 2B67           01909    INCF COUNT_WHITE, 1, 1
001052 0EFF           01910    MOVLW -1H    
001054 6F37           01911    MOVWF REG1, 1                 
001056 EF?? F???      01912    GOTO CONTINUE
00105A                01913 INCREMENT_WHITE2_4
00105A 2B67           01914    INCF COUNT_WHITE, 1, 1
00105C 0EFF           01915    MOVLW -1H
00105E 6F38           01916    MOVWF REG2, 1
001060 EF?? F???      01917    GOTO CONTINUE
001064                01918 INCREMENT_WHITE3_4
001064 2B67           01919    INCF COUNT_WHITE, 1, 1
001066 0EFF           01920    MOVLW -1H    
001068 6F39           01921    MOVWF REG3, 1                
00106A EF?? F???      01922    GOTO CONTINUE
                      01923    
00106E                01924 CHECKW1
                      01925    ;COMPARE REG5 WITH 2 3 AND 4
00106E 5147           01926    MOVF REG5, 0, 1
001070 5D38           01927    SUBWF REG2, 0, 1
001072 E0??           01928    BZ INCREMENT_WHITE2_1 
001074 5147           01929    MOVF REG5, 0, 1
001076 5D39           01930    SUBWF REG3, 0, 1
001078 E0??           01931    BZ INCREMENT_WHITE3_1
00107A 5147           01932    MOVF REG5, 0, 1
00107C 5D3A           01933    SUBWF REG4, 0, 1
00107E E0??           01934    BZ INCREMENT_WHITE4_1
001080 EF?? F???      01935    GOTO CHECKW2
                      01936    
001084                01937 CHECKW2
                      01938    ;COMPARE REG6 WITH 1 3 AND 4
001084 5148           01939    MOVF REG6,0, 1
001086 5D37           01940    SUBWF REG1, 0, 1
001088 E0??           01941    BZ INCREMENT_WHITE1_2
00108A 5148           01942    MOVF REG6,0, 1
00108C 5D39           01943    SUBWF REG3, 0, 1
00108E E0??           01944    BZ INCREMENT_WHITE3_2
001090 5148           01945    MOVF REG6,0, 1
001092 5D3A           01946    SUBWF REG4, 0, 1
001094 E0??           01947    BZ INCREMENT_WHITE4_2
001096 EF?? F???      01948    GOTO CHECKW3
                      01949    
00109A                01950 CHECKW3
                      01951    ;COMPARE REG7 WITH 1 2 AND 4
00109A 5149           01952    MOVF REG7, 0, 1
00109C 5D37           01953    SUBWF REG1, 0, 1
00109E E0??           01954    BZ INCREMENT_WHITE1_3
0010A0 5149           01955    MOVF REG7, 0, 1
0010A2 5D38           01956    SUBWF REG2, 0, 1
0010A4 E0??           01957    BZ INCREMENT_WHITE2_3
0010A6 5149           01958    MOVF REG7, 0, 1
MPASM 5.77                 THE_REAL_DEAL.ASM   12-13-2019  1:09:44         PAGE 39


LOC  OBJECT CODE     LINE SOURCE TEXT
  VALUE

0010A8 5D3A           01959    SUBWF REG4, 0, 1
0010AA E0??           01960    BZ INCREMENT_WHITE4_3
0010AC EF?? F???      01961    GOTO CHECKW4
                      01962    
0010B0                01963 CHECKW4
                      01964    ;COMPARE REG8 WITH 1 2 AND 3
0010B0 514A           01965    MOVF REG8, 0, 1
0010B2 5D37           01966    SUBWF REG1, 0, 1
0010B4 E0??           01967    BZ INCREMENT_WHITE1_4
0010B6 514A           01968    MOVF REG8, 0, 1
0010B8 5D38           01969    SUBWF REG2, 0, 1
0010BA E0??           01970    BZ INCREMENT_WHITE2_4
0010BC 514A           01971    MOVF REG8, 0, 1
0010BE 5D39           01972    SUBWF REG3, 0, 1
0010C0 E0??           01973    BZ INCREMENT_WHITE3_4
0010C2 EF?? F???      01974    GOTO CONTINUE                
                      01975    
0010C6                01976 CONTINUE
0010C6 0E3A           01977    MOVLW 3AH
0010C8 6106           01978    CPFSLT GUESS_COUNTER, 1
0010CA EF?? F???      01979    GOTO CONTINUE_TENS
0010CE EF?? F???      01980    GOTO CONTINUE_ONES
                      01981 ;*******************************************************************************
                      01982 ;Feedback display     
                      01983 ;*******************************************************************************
                      01984 ;*******************************************************************************   
                      01985 ;For guesses below 10
                      01986 ;displays "  GUESS#: ####  "
                      01987 ;         "BLACK=# WHITE=# "
                      01988 ;*******************************************************************************
0010D2                01989 CONTINUE_ONES
0010D2 0E30           01990     MOVLW 30H
0010D4 2700           01991     ADDWF GUESS1, 1, 1
0010D6 2701           01992     ADDWF GUESS2, 1, 1
0010D8 2702           01993     ADDWF GUESS3, 1, 1
0010DA 2703           01994     ADDWF GUESS4, 1, 1
0010DC 2757           01995     ADDWF COUNT_BLACK, 1, 1
0010DE 2767           01996     ADDWF COUNT_WHITE, 1, 1
                      01997     
0010E0 EC?? F???      01998     call        LCDLine_1
0010E4 0E20           01999     movLW       A' '
0010E6 6E05           02000     movWF       temp_wr
0010E8 EC?? F???      02001     call        d_write
0010EC 0E20           02002     movLW       A' '
0010EE 6E05           02003     movWF       temp_wr
0010F0 EC?? F???      02004     call        d_write
0010F4 0E47           02005     movLW       A'G'
0010F6 6E05           02006     movWF       temp_wr
0010F8 EC?? F???      02007     call        d_write
0010FC 0E55           02008     movLW       A'U'
0010FE 6E05           02009     movWF       temp_wr
001100 EC?? F???      02010     call        d_write
001104 0E45           02011     movLW       A'E'
MPASM 5.77                 THE_REAL_DEAL.ASM   12-13-2019  1:09:44         PAGE 40


LOC  OBJECT CODE     LINE SOURCE TEXT
  VALUE

001106 6E05           02012     movWF       temp_wr
001108 EC?? F???      02013     call        d_write
00110C 0E53           02014     movLW       A'S'
00110E 6E05           02015     movWF       temp_wr
001110 EC?? F???      02016     call        d_write
001114 0E53           02017     movLW       A'S'
001116 6E05           02018     movWF       temp_wr
001118 EC?? F???      02019     call        d_write
00111C 5106           02020     movF        GUESS_COUNTER, 0, 1
00111E 6E05           02021     movWF       temp_wr
001120 EC?? F???      02022     call        d_write
001124 0E3A           02023     movLW       A':'
001126 6E05           02024     movWF       temp_wr
001128 EC?? F???      02025     call        d_write
00112C 0E20           02026     movLW       A' '
00112E 6E05           02027     movWF       temp_wr
001130 EC?? F???      02028     call        d_write
001134 5100           02029     movF        GUESS1, 0, 1    
001136 6E05           02030     movWF       temp_wr
001138 EC?? F???      02031     call        d_write
00113C 5101           02032     movF        GUESS2, 0, 1            
00113E 6E05           02033     movWF       temp_wr
001140 EC?? F???      02034     call        d_write
001144 5102           02035     movF        GUESS3, 0, 1    
001146 6E05           02036     movWF       temp_wr
001148 EC?? F???      02037     call        d_write
00114C 5103           02038     movF        GUESS4, 0, 1    
00114E 6E05           02039     movWF       temp_wr
001150 EC?? F???      02040     call        d_write
001154 0E20           02041     movLW       A' '
001156 6E05           02042     movWF       temp_wr
001158 EC?? F???      02043     call        d_write
00115C 0E20           02044     movLW       A' '
00115E 6E05           02045     movWF       temp_wr
001160 EC?? F???      02046     call        d_write
                      02047   
001164 EC?? F???      02048     call        LCDLine_2
001168 0E42           02049     movLW       A'B'
00116A 6E05           02050     movWF       temp_wr
00116C EC?? F???      02051     call        d_write
001170 0E4C           02052     movLW       A'L'
001172 6E05           02053     movWF       temp_wr
001174 EC?? F???      02054     call        d_write
001178 0E41           02055     movLW       A'A'
00117A 6E05           02056     movWF       temp_wr
00117C EC?? F???      02057     call        d_write
001180 0E43           02058     movLW       A'C'
001182 6E05           02059     movWF       temp_wr
001184 EC?? F???      02060     call        d_write
001188 0E4B           02061     movLW       A'K'
00118A 6E05           02062     movWF       temp_wr
00118C EC?? F???      02063     call        d_write
001190 0E3D           02064     movLW       A'='
MPASM 5.77                 THE_REAL_DEAL.ASM   12-13-2019  1:09:44         PAGE 41


LOC  OBJECT CODE     LINE SOURCE TEXT
  VALUE

001192 6E05           02065     movWF       temp_wr
001194 EC?? F???      02066     call        d_write
001198 5157           02067     movF        COUNT_BLACK, 0, 1       
00119A 6E05           02068     movWF       temp_wr
00119C EC?? F???      02069     call        d_write
0011A0 0E20           02070     movLW       A' '
0011A2 6E05           02071     movWF       temp_wr
0011A4 EC?? F???      02072     call        d_write
0011A8 0E57           02073     movLW       A'W'
0011AA 6E05           02074     movWF       temp_wr
0011AC EC?? F???      02075     call        d_write
0011B0 0E48           02076     movLW       A'H'
0011B2 6E05           02077     movWF       temp_wr
0011B4 EC?? F???      02078     call        d_write
0011B8 0E49           02079     movLW       A'I'
0011BA 6E05           02080     movWF       temp_wr
0011BC EC?? F???      02081     call        d_write
0011C0 0E54           02082     movLW       A'T'
0011C2 6E05           02083     movWF       temp_wr
0011C4 EC?? F???      02084     call        d_write
0011C8 0E45           02085     movLW       A'E'
0011CA 6E05           02086     movWF       temp_wr
0011CC EC?? F???      02087     call        d_write
0011D0 0E3D           02088     movLW       A'='
0011D2 6E05           02089     movWF       temp_wr
0011D4 EC?? F???      02090     call        d_write
0011D8 5167           02091     movF        COUNT_WHITE, 0, 1               
0011DA 6E05           02092     movWF       temp_wr
0011DC EC?? F???      02093     call        d_write
0011E0 0E20           02094     movLW       A' '
0011E2 6E05           02095     movWF       temp_wr
0011E4 EC?? F???      02096     call        d_write
                      02097     
                      02098     ;Convert values back from ASCII form.
0011E8 0E30           02099     MOVLW 30H
0011EA 5F57           02100     SUBWF COUNT_BLACK, 1, 1
0011EC 5F67           02101     SUBWF COUNT_WHITE, 1, 1
0011EE EF?? F???      02102     GOTO Score_Delay
                      02103     
                      02104 ;*******************************************************************************   
                      02105 ;For guesses 10 and up 
                      02106 ;*******************************************************************************   
0011F2                02107 CONTINUE_TENS
0011F2 0E30           02108     MOVLW 30H
0011F4 2700           02109     ADDWF GUESS1, 1, 1
0011F6 2701           02110     ADDWF GUESS2, 1, 1
0011F8 2702           02111     ADDWF GUESS3, 1, 1
0011FA 2703           02112     ADDWF GUESS4, 1, 1
0011FC 2757           02113     ADDWF COUNT_BLACK, 1, 1
0011FE 2767           02114     ADDWF COUNT_WHITE, 1, 1
                      02115     
001200 EC?? F???      02116     call        LCDLine_1
001204 0E20           02117     movLW       A' '
MPASM 5.77                 THE_REAL_DEAL.ASM   12-13-2019  1:09:44         PAGE 42


LOC  OBJECT CODE     LINE SOURCE TEXT
  VALUE

001206 6E05           02118     movWF       temp_wr
001208 EC?? F???      02119     call        d_write
00120C 0E47           02120     movLW       A'G'
00120E 6E05           02121     movWF       temp_wr
001210 EC?? F???      02122     call        d_write
001214 0E55           02123     movLW       A'U'
001216 6E05           02124     movWF       temp_wr
001218 EC?? F???      02125     call        d_write
00121C 0E45           02126     movLW       A'E'
00121E 6E05           02127     movWF       temp_wr
001220 EC?? F???      02128     call        d_write
001224 0E53           02129     movLW       A'S'
001226 6E05           02130     movWF       temp_wr
001228 EC?? F???      02131     call        d_write
00122C 0E53           02132     movLW       A'S'
00122E 6E05           02133     movWF       temp_wr
001230 EC?? F???      02134     call        d_write
001234 0E31           02135     movLW       A'1'
001236 6E05           02136     movWF       temp_wr
001238 EC?? F???      02137     call        d_write
00123C 0E0A           02138     MOVLW       0AH
00123E 5D06           02139     SUBWF       GUESS_COUNTER, 0, 1
001240 6E05           02140     movWF       temp_wr
001242 EC?? F???      02141     call        d_write
001246 0E3A           02142     movLW       A':'
001248 6E05           02143     movWF       temp_wr
00124A EC?? F???      02144     call        d_write
00124E 0E20           02145     movLW       A' '
001250 6E05           02146     movWF       temp_wr
001252 EC?? F???      02147     call        d_write
001256 5100           02148     movF        GUESS1, 0, 1    
001258 6E05           02149     movWF       temp_wr
00125A EC?? F???      02150     call        d_write
00125E 5101           02151     movF        GUESS2, 0, 1            
001260 6E05           02152     movWF       temp_wr
001262 EC?? F???      02153     call        d_write
001266 5102           02154     movF        GUESS3, 0, 1    
001268 6E05           02155     movWF       temp_wr
00126A EC?? F???      02156     call        d_write
00126E 5103           02157     movF        GUESS4, 0, 1    
001270 6E05           02158     movWF       temp_wr
001272 EC?? F???      02159     call        d_write
001276 0E20           02160     movLW       A' '
001278 6E05           02161     movWF       temp_wr
00127A EC?? F???      02162     call        d_write
00127E 0E20           02163     movLW       A' '
001280 6E05           02164     movWF       temp_wr
001282 EC?? F???      02165     call        d_write
                      02166     
001286 EC?? F???      02167     call        LCDLine_2
00128A 0E42           02168     movLW       A'B'
00128C 6E05           02169     movWF       temp_wr
00128E EC?? F???      02170     call        d_write
MPASM 5.77                 THE_REAL_DEAL.ASM   12-13-2019  1:09:44         PAGE 43


LOC  OBJECT CODE     LINE SOURCE TEXT
  VALUE

001292 0E4C           02171     movLW       A'L'
001294 6E05           02172     movWF       temp_wr
001296 EC?? F???      02173     call        d_write
00129A 0E41           02174     movLW       A'A'
00129C 6E05           02175     movWF       temp_wr
00129E EC?? F???      02176     call        d_write
0012A2 0E43           02177     movLW       A'C'
0012A4 6E05           02178     movWF       temp_wr
0012A6 EC?? F???      02179     call        d_write
0012AA 0E4B           02180     movLW       A'K'
0012AC 6E05           02181     movWF       temp_wr
0012AE EC?? F???      02182     call        d_write
0012B2 0E3D           02183     movLW       A'='
0012B4 6E05           02184     movWF       temp_wr
0012B6 EC?? F???      02185     call        d_write
0012BA 5157           02186     movF        COUNT_BLACK, 0, 1               
0012BC 6E05           02187     movWF       temp_wr
0012BE EC?? F???      02188     call        d_write
0012C2 0E20           02189     movLW       A' '
0012C4 6E05           02190     movWF       temp_wr
0012C6 EC?? F???      02191     call        d_write
0012CA 0E57           02192     movLW       A'W'
0012CC 6E05           02193     movWF       temp_wr
0012CE EC?? F???      02194     call        d_write
0012D2 0E48           02195     movLW       A'H'
0012D4 6E05           02196     movWF       temp_wr
0012D6 EC?? F???      02197     call        d_write
0012DA 0E49           02198     movLW       A'I'
0012DC 6E05           02199     movWF       temp_wr
0012DE EC?? F???      02200     call        d_write
0012E2 0E54           02201     movLW       A'T'
0012E4 6E05           02202     movWF       temp_wr
0012E6 EC?? F???      02203     call        d_write
0012EA 0E45           02204     movLW       A'E'
0012EC 6E05           02205     movWF       temp_wr
0012EE EC?? F???      02206     call        d_write
0012F2 0E3D           02207     movLW       A'='
0012F4 6E05           02208     movWF       temp_wr
0012F6 EC?? F???      02209     call        d_write
0012FA 5167           02210     movF        COUNT_WHITE, 0, 1       
0012FC 6E05           02211     movWF       temp_wr
0012FE EC?? F???      02212     call        d_write
001302 0E20           02213     movLW       A' '
001304 6E05           02214     movWF       temp_wr
001306 EC?? F???      02215     call        d_write
                      02216     
                      02217     ;Convert back from ASCII
00130A 0E30           02218     MOVLW 30H
00130C 5F57           02219     SUBWF COUNT_BLACK, 1, 1
00130E 5F67           02220     SUBWF COUNT_WHITE, 1, 1
001310 EF?? F???      02221     GOTO Score_Delay
                      02222     
                      02223 ;*******************************************************************************
MPASM 5.77                 THE_REAL_DEAL.ASM   12-13-2019  1:09:44         PAGE 44


LOC  OBJECT CODE     LINE SOURCE TEXT
  VALUE

                      02224 ;Hold display for user to read.    
                      02225 ;*******************************************************************************
001314                02226 Score_Delay
                      02227     ;delay
001314 0E15           02228     movLW       15
001316 6E00           02229     movWF       Count2
001318 6A01           02230     clrF        Count1
00131A 6A02           02231     clrF        Count0
00131C                02232 WLoo11
00131C 2E02           02233     decFsZ      Count0
00131E D???           02234     bra         WLoo11
001320 2E01           02235     decFsZ      Count1
001322 D???           02236     bra         WLoo11
001324 2E00           02237     decFsZ      Count2
001326 D???           02238     bra         WLoo11  
                      02239     
                      02240 ;*******************************************************************************
                      02241 ;Store guess into array.   
                      02242 ;******************************************************************************
                      02243     ;Subtract 30 from guesses to take them out of ascii form.
001328 0E30           02244         MOVLW 30H
00132A 5F00           02245         SUBWF GUESS1, 1, 1
00132C 5F01           02246         SUBWF GUESS2, 1, 1
00132E 5F02           02247         SUBWF GUESS3, 1, 1
001330 5F03           02248         SUBWF GUESS4, 1, 1
                      02249         
                      02250         ;For moving to next row. 
001332 0E0C           02251         MOVLW 0CH
001334 6F07           02252         MOVWF INNERCOUNTER, 1
                      02253         
                      02254         ;Putting GUESS 1-4 across the row
001336 5100           02255         MOVF GUESS1, 0, 1
001338 6EEF           02256         MOVWF INDF0
00133A 2AE9           02257         INCF FSR0L, F
                      02258 
00133C 5101           02259         MOVF GUESS2, 0, 1
00133E 6EEF           02260         MOVWF INDF0
001340 2AE9           02261         INCF FSR0L, F
                      02262 
001342 5102           02263         MOVF GUESS3, 0, 1
001344 6EEF           02264         MOVWF INDF0
001346 2AE9           02265         INCF FSR0L, F
                      02266 
001348 5103           02267         MOVF GUESS4, 0, 1
00134A 6EEF           02268         MOVWF INDF0
00134C 2AE9           02269         INCF FSR0L, F
                      02270 
                      02271         ;going down 1 column
Warning[207]: Found label after column 1. (NextRow)
00134E                02272         NextRow
00134E 2AE9           02273             INCF FSR0L, F
001350 0707           02274             DECF INNERCOUNTER, 1, 1
001352 E1??           02275             BNZ NextRow
MPASM 5.77                 THE_REAL_DEAL.ASM   12-13-2019  1:09:44         PAGE 45


LOC  OBJECT CODE     LINE SOURCE TEXT
  VALUE

                      02276 
                      02277 ;*******************************************************************************
                      02278 ;CHECK IF GAME OVER 
                      02279 ; if game won, call GAME_WON subroutine
                      02280 ; if number of guesses equals 12 call GAME_LOST subroutine
                      02281 ; else loop to check next guess. 
                      02282 ;*******************************************************************************
001354 0004           02283         CLRWDT
001356 0E04           02284         MOVLW 4H
001358 5D57           02285         SUBWF COUNT_BLACK, 0, 1
00135A E0??           02286         BZ TEMP 
                      02287         
00135C 0E3C           02288         MOVLW 3CH
00135E 5D06           02289         SUBWF GUESS_COUNTER, 0, 1
001360 E0??           02290         BZ GAME_LOST
                      02291         
                      02292         ;increment guess count
001362 2B06           02293         INCF GUESS_COUNTER, 1, 1
                      02294         ;loop back to get next guess.
001364 EF?? F???      02295         GOTO GUESS_DIGITS
                      02296          
001368                02297 TEMP
001368 EF?? F???      02298    GOTO GAME_WON
                      02299         
                      02300 ;subroutine displaying that the game is lost.  
00136C                02301 GAME_LOST
                      02302     ;displays "   CODE: ####   "
                      02303     ;         "   GAME LOST    "
00136C 0E30           02304     MOVLW 30H
00136E 2717           02305     ADDWF DIG1, 1, 1
001370 2718           02306     ADDWF DIG2, 1, 1
001372 2719           02307     ADDWF DIG3, 1, 1
001374 271A           02308     ADDWF DIG4, 1, 1
                      02309     
001376 EC?? F???      02310     call        LCDLine_1
00137A 0E20           02311     movLW       A' '
00137C 6E05           02312     movWF       temp_wr
00137E EC?? F???      02313     call        d_write
001382 0E20           02314     movLW       A' '
001384 6E05           02315     movWF       temp_wr
001386 EC?? F???      02316     call        d_write
00138A 0E20           02317     movLW       A' '
00138C 6E05           02318     movWF       temp_wr
00138E EC?? F???      02319     call        d_write
001392 0E43           02320     movLW       A'C'
001394 6E05           02321     movWF       temp_wr
001396 EC?? F???      02322     call        d_write
00139A 0E4F           02323     movLW       A'O'
00139C 6E05           02324     movWF       temp_wr
00139E EC?? F???      02325     call        d_write
0013A2 0E44           02326     movLW       A'D'
0013A4 6E05           02327     movWF       temp_wr
0013A6 EC?? F???      02328     call        d_write
MPASM 5.77                 THE_REAL_DEAL.ASM   12-13-2019  1:09:44         PAGE 46


LOC  OBJECT CODE     LINE SOURCE TEXT
  VALUE

0013AA 0E45           02329     movLW       A'E'
0013AC 6E05           02330     movWF       temp_wr
0013AE EC?? F???      02331     call        d_write
0013B2 0E3A           02332     movLW       A':'
0013B4 6E05           02333     movWF       temp_wr
0013B6 EC?? F???      02334     call        d_write
0013BA 0E20           02335     movLW       A' '
0013BC 6E05           02336     movWF       temp_wr
0013BE EC?? F???      02337     call        d_write
0013C2 5117           02338     movF        DIG1, 0, 1              
0013C4 6E05           02339     movWF       temp_wr
0013C6 EC?? F???      02340     call        d_write
0013CA 5118           02341     movF        DIG2, 0, 1              
0013CC 6E05           02342     movWF       temp_wr
0013CE EC?? F???      02343     call        d_write
0013D2 5119           02344     movF        DIG3, 0, 1              
0013D4 6E05           02345     movWF       temp_wr
0013D6 EC?? F???      02346     call        d_write
0013DA 511A           02347     movF        DIG4, 0, 1              
0013DC 6E05           02348     movWF       temp_wr
0013DE EC?? F???      02349     call        d_write
0013E2 0E20           02350     movLW       A' '
0013E4 6E05           02351     movWF       temp_wr
0013E6 EC?? F???      02352     call        d_write
0013EA 0E20           02353     movLW       A' '
0013EC 6E05           02354     movWF       temp_wr
0013EE EC?? F???      02355     call        d_write
0013F2 0E20           02356     movLW       A' '
0013F4 6E05           02357     movWF       temp_wr
0013F6 EC?? F???      02358     call        d_write
                      02359     
0013FA EC?? F???      02360     call        LCDLine_2
0013FE 0E20           02361     movLW       A' '
001400 6E05           02362     movWF       temp_wr
001402 EC?? F???      02363     call        d_write
001406 0E20           02364     movLW       A' '
001408 6E05           02365     movWF       temp_wr
00140A EC?? F???      02366     call        d_write
00140E 0E20           02367     movLW       A' '
001410 6E05           02368     movWF       temp_wr
001412 EC?? F???      02369     call        d_write
001416 0E47           02370     movLW       A'G'
001418 6E05           02371     movWF       temp_wr
00141A EC?? F???      02372     call        d_write
00141E 0E41           02373     movLW       A'A'
001420 6E05           02374     movWF       temp_wr
001422 EC?? F???      02375     call        d_write
001426 0E4D           02376     movLW       A'M'
001428 6E05           02377     movWF       temp_wr
00142A EC?? F???      02378     call        d_write
00142E 0E45           02379     movLW       A'E'            
001430 6E05           02380     movWF       temp_wr
001432 EC?? F???      02381     call        d_write
MPASM 5.77                 THE_REAL_DEAL.ASM   12-13-2019  1:09:44         PAGE 47


LOC  OBJECT CODE     LINE SOURCE TEXT
  VALUE

001436 0E20           02382     movLW       A' '
001438 6E05           02383     movWF       temp_wr
00143A EC?? F???      02384     call        d_write
00143E 0E4C           02385     movLW       A'L'
001440 6E05           02386     movWF       temp_wr
001442 EC?? F???      02387     call        d_write
001446 0E4F           02388     movLW       A'O'
001448 6E05           02389     movWF       temp_wr
00144A EC?? F???      02390     call        d_write
00144E 0E53           02391     movLW       A'S'
001450 6E05           02392     movWF       temp_wr
001452 EC?? F???      02393     call        d_write
001456 0E54           02394     movLW       A'T'
001458 6E05           02395     movWF       temp_wr
00145A EC?? F???      02396     call        d_write
00145E 0E20           02397     movLW       A' '
001460 6E05           02398     movWF       temp_wr
001462 EC?? F???      02399     call        d_write
001466 0E20           02400     movLW       A' '
001468 6E05           02401     movWF       temp_wr
00146A EC?? F???      02402     call        d_write
00146E 0E20           02403     movLW       A' '            
001470 6E05           02404     movWF       temp_wr
001472 EC?? F???      02405     call        d_write
001476 0E20           02406     movLW       A' '
001478 6E05           02407     movWF       temp_wr
00147A EC?? F???      02408     call        d_write
00147E EF?? F???      02409     GOTO GAME_OVER
                      02410     
                      02411 ;subroutine for displaying game won.    
001482                02412 GAME_WON
                      02413     ;displays "   CODE: ####   "
                      02414     ;         "   GAME WON!    "
001482 0E30           02415     MOVLW 30H
001484 2717           02416     ADDWF DIG1, 1, 1
001486 2718           02417     ADDWF DIG2, 1, 1
001488 2719           02418     ADDWF DIG3, 1, 1
00148A 271A           02419     ADDWF DIG4, 1, 1
00148C EC?? F???      02420     call        LCDLine_1
001490 0E20           02421     movLW       A' '
001492 6E05           02422     movWF       temp_wr
001494 EC?? F???      02423     call        d_write
001498 0E20           02424     movLW       A' '
00149A 6E05           02425     movWF       temp_wr
00149C EC?? F???      02426     call        d_write
0014A0 0E20           02427     movLW       A' '
0014A2 6E05           02428     movWF       temp_wr
0014A4 EC?? F???      02429     call        d_write
0014A8 0E43           02430     movLW       A'C'
0014AA 6E05           02431     movWF       temp_wr
0014AC EC?? F???      02432     call        d_write
0014B0 0E4F           02433     movLW       A'O'
0014B2 6E05           02434     movWF       temp_wr
MPASM 5.77                 THE_REAL_DEAL.ASM   12-13-2019  1:09:44         PAGE 48


LOC  OBJECT CODE     LINE SOURCE TEXT
  VALUE

0014B4 EC?? F???      02435     call        d_write
0014B8 0E44           02436     movLW       A'D'
0014BA 6E05           02437     movWF       temp_wr
0014BC EC?? F???      02438     call        d_write
0014C0 0E45           02439     movLW       A'E'
0014C2 6E05           02440     movWF       temp_wr
0014C4 EC?? F???      02441     call        d_write
0014C8 0E3A           02442     movLW       A':'
0014CA 6E05           02443     movWF       temp_wr
0014CC EC?? F???      02444     call        d_write
0014D0 0E20           02445     movLW       A' '
0014D2 6E05           02446     movWF       temp_wr
0014D4 EC?? F???      02447     call        d_write
0014D8 5117           02448     movF        DIG1, 0, 1              
0014DA 6E05           02449     movWF       temp_wr
0014DC EC?? F???      02450     call        d_write
0014E0 5118           02451     movF        DIG2, 0, 1              
0014E2 6E05           02452     movWF       temp_wr
0014E4 EC?? F???      02453     call        d_write
0014E8 5119           02454     movF        DIG3, 0, 1              
0014EA 6E05           02455     movWF       temp_wr
0014EC EC?? F???      02456     call        d_write
0014F0 511A           02457     movF        DIG4, 0, 1      
0014F2 6E05           02458     movWF       temp_wr
0014F4 EC?? F???      02459     call        d_write
0014F8 0E20           02460     movLW       A' '
0014FA 6E05           02461     movWF       temp_wr
0014FC EC?? F???      02462     call        d_write
001500 0E20           02463     movLW       A' '
001502 6E05           02464     movWF       temp_wr
001504 EC?? F???      02465     call        d_write
001508 0E20           02466     movLW       A' '
00150A 6E05           02467     movWF       temp_wr
00150C EC?? F???      02468     call        d_write
                      02469     
001510 EC?? F???      02470     call        LCDLine_2
001514 0E20           02471     movLW       A' '
001516 6E05           02472     movWF       temp_wr
001518 EC?? F???      02473     call        d_write
00151C 0E20           02474     movLW       A' '
00151E 6E05           02475     movWF       temp_wr
001520 EC?? F???      02476     call        d_write
001524 0E20           02477     movLW       A' '
001526 6E05           02478     movWF       temp_wr
001528 EC?? F???      02479     call        d_write
00152C 0E47           02480     movLW       A'G'
00152E 6E05           02481     movWF       temp_wr
001530 EC?? F???      02482     call        d_write
001534 0E41           02483     movLW       A'A'
001536 6E05           02484     movWF       temp_wr
001538 EC?? F???      02485     call        d_write
00153C 0E4D           02486     movLW       A'M'
00153E 6E05           02487     movWF       temp_wr
MPASM 5.77                 THE_REAL_DEAL.ASM   12-13-2019  1:09:44         PAGE 49


LOC  OBJECT CODE     LINE SOURCE TEXT
  VALUE

001540 EC?? F???      02488     call        d_write
001544 0E45           02489     movLW       A'E'            
001546 6E05           02490     movWF       temp_wr
001548 EC?? F???      02491     call        d_write
00154C 0E20           02492     movLW       A' '
00154E 6E05           02493     movWF       temp_wr
001550 EC?? F???      02494     call        d_write
001554 0E57           02495     movLW       A'W'
001556 6E05           02496     movWF       temp_wr
001558 EC?? F???      02497     call        d_write
00155C 0E4F           02498     movLW       A'O'
00155E 6E05           02499     movWF       temp_wr
001560 EC?? F???      02500     call        d_write
001564 0E4E           02501     movLW       A'N'
001566 6E05           02502     movWF       temp_wr
001568 EC?? F???      02503     call        d_write
00156C 0E21           02504     movLW       A'!'
00156E 6E05           02505     movWF       temp_wr
001570 EC?? F???      02506     call        d_write
001574 0E20           02507     movLW       A' '
001576 6E05           02508     movWF       temp_wr
001578 EC?? F???      02509     call        d_write
00157C 0E20           02510     movLW       A' '
00157E 6E05           02511     movWF       temp_wr
001580 EC?? F???      02512     call        d_write
001584 0E20           02513     movLW       A' '            
001586 6E05           02514     movWF       temp_wr
001588 EC?? F???      02515     call        d_write
00158C 0E20           02516     movLW       A' '
00158E 6E05           02517     movWF       temp_wr
001590 EC?? F???      02518     call        d_write
                      02519     
001594 EF?? F???      02520     GOTO GAME_OVER
                      02521     
001598                02522 GAME_OVER
001598                02523 Twiddle:
001598 EF?? F???      02524     GoTo        Twiddle   
                      02525     
                      02526     #Include LCD_p18LCD_Subs_New.asm
                      00001 ;*      Filename:  LCD_p18LCD_Subs.asm      CFD mods                    *
                      00002 ;*      previously     p18LCD_m.asm    (EMD/CFD mods)                   *
                      00003 ;*                 -- LCD Display Subroutines for general use.          *
                      00004 ;*                 -- Include this file in your  Program.asm,           *
                      00005 ;*   ** YOU MUST ** define the (commented-out) CBlock variables         *
                      00006 ;*               ** in your CBLOCK Section **                           *
                      00007 ;*      This could be done with Relocatable Code, but not today.        *
                      00008 ;************************************************************************
                      00009 ; Routines ------------------------------------
                      00010 ; --- LCDInit:          >> initialize
                      00011 ; --- LCDLine_1:        >> Write 16 chars to Line_1
                      00012 ; --- LCDLine_2:        >> Write 16 chars to Line_2
                      00013 ; --- i_write:          >> instruction write
                      00014 ; --- d_write:          >> data        write
MPASM 5.77                 THE_REAL_DEAL.ASM   12-13-2019  1:09:44         PAGE 50


LOC  OBJECT CODE     LINE SOURCE TEXT
  VALUE

                      00015 ; ---------------------------------------------
                      00016 ;
                      00017 ;*  Technical Phyzzie.babble on LCD technology
                      00018 ;*  Liquid crystal displays are made by assembling Top & Bottom polarizing
                      00019 ;       filters shifted by 90 degrees, with a thin layer of a twisted nematic 
                      00020 ;*      liquid placed between them.  A back-light is optional.
                      00021 ;*   The liquid crystal layer normally has chains of molecules that have
                      00022 ;       a natural twist that are aligned between the polarized sheets.
                      00023 ;       The thickness of the layer is such that the amount of twist from
                      00024 ;       the top to the bottom of the layer is 90 degrees.
                      00025 ;    The ends of the molecules attach to the grooves of the polarized layers.
                      00026 ;       First, light passes through the top polarizer, becoming plane polarized.
                      00027 ;       As the light passses through the liquid, the polarization rotates,
                      00028 ;       and reaches 90 degrees at the bottom polarizer and passes through it.
                      00029 ;    In this way, the sandwich is optically transmissive.       
                      00030 ; 
                      00031 ;    Thus, the cell is normally clear; but it turns dark when a potential is applied.
                      00032 ;       The polarizer plates are electrically conductive, so a potential difference
                      00033 ;       (i.e. electric field) can be applied between the plates.
                      00034 ;       The electric field straightens out the twist of the liquid, so that
                      00035 ;       light is not rotated sufficiently to pass through the bottom polarizer.
                      00036 ;        The cell then becomes absorptive.
                      00037 ;    In actual operation, a single sign of potential can not be used, because of
                      00038 ;        electro-plating effects, which would shorten the operating life.  In practice
                      00039 ;        a plus/minus drive is used, with 50% duty cycle
                      00040 ; 
                      00041 ;    In practice, most displays have their own hardware controller (a small microprocessor).
                      00042 ;       Commands and Data are sent to the controller, which controls the display.
                      00043 ;    Here, the controller has 3 control lines (Enable, Read/Write and Register-Select)
                      00044 ;       and a Data.Bus that can be either 4 or 8 bits wide.
                      00045 ;    The PICdem2 wiring is for a 4-bit Data.Bus.
                      00046 
                      00047 ;* These variables  **MUST BE**  declared in the **User's**  main Program code
                      00048 ;       CBLOCK  0x00 ; -----  User RAM.Data in Access Bank 
                      00049 ; COUNTER       ; counter for delay loops
                      00050 ; delay         ; amount  of  delay for delay subroutines
                      00051 ; temp_wr       ; temporary register for LCD written data
                      00052 ; temp_rd       ; temporary register for data read from the LCD controller
                      00053 ;       ENDC
                      00054 ;             original notation for ----------------------  READs
                      00055 #define LCD_D4          PORTD, 0        ; LCD data bits for READs
                      00056 #define LCD_D5          PORTD, 1        ; These form the 4 bit data bus
                      00057 #define LCD_D6          PORTD, 2        ; The data bus is bidirectional
                      00058 #define LCD_D7          PORTD, 3
                      00059 ;             w-notation is for --------------------------  WRITES
                      00060 #define LCD_D4w         LATD, 0         ; LCD data bits for WRITEs
                      00061 #define LCD_D5w         LATD, 1         ; !! bSF and bCF should operate on LATs,
                      00062 #define LCD_D6w         LATD, 2         ; !!                        not on PORTs
                      00063 #define LCD_D7w         LATD, 3         ; !!
                      00064 
                      00065 #define LCD_D4_DIR      TRISD, 0        ; LCD data direction bits
                      00066 #define LCD_D5_DIR      TRISD, 1        ; The TRIS commands set the port
                      00067 #define LCD_D6_DIR      TRISD, 2        ;   pin as input (1) or output (0)
MPASM 5.77                 THE_REAL_DEAL.ASM   12-13-2019  1:09:44         PAGE 51


LOC  OBJECT CODE     LINE SOURCE TEXT
  VALUE

                      00068 #define LCD_D7_DIR      TRISD, 3        ; This allows the direction to be
                      00069                                         ; changed under program control
                      00070 
                      00071 ;            w-notation is for --------------------------  WRITEing Commands & Clock
                      00072 #define LCD_PWRw        LATD, 7
                      00073 #define LCD_Ew          LATD, 6         ; LCD Enable = Clock. Transfers to the LCD
                      00074                                         ;   are syncronized using this "clock" line
                      00075 #define LCD_RWw         LATD, 5         ; LCD Read/write line
                      00076 #define LCD_RSw         LATD, 4         ; LCD Register-Select line
                      00077 
                      00078 #define LCD_PWR_DIR     TRISD, 7
                      00079 #define LCD_E_DIR       TRISD, 6        ; Direction bits for the control lines
                      00080 #define LCD_RW_DIR      TRISD, 5        
                      00081 #define LCD_RS_DIR      TRISD, 4        
                      00082 
                      00083 ;****************************************************************************
00159C                00084 LCDInit:                        ; Sets up the LCD controller and selects options
00159C 6A80           00085         clrf    PORTA
                      00086         
00159E 9E95           00087         bCf     LCD_PWR_DIR
0015A0 9C95           00088         bCf     LCD_E_DIR       ;configure control lines for output
0015A2 9A95           00089         bCf     LCD_RW_DIR
0015A4 9895           00090         bCf     LCD_RS_DIR
                      00091         
0015A6 9095           00092         bCf     LCD_D4_DIR              ; Set data bits to outputs
0015A8 9295           00093         bCf     LCD_D5_DIR
0015AA 9495           00094         bCf     LCD_D6_DIR
0015AC 9695           00095         bCf     LCD_D7_DIR
                      00096                                 ; Why ??  Register 17-2, pg.182
0015AE 0E0E           00097         movLW   b'00001110'     ; On device RESET, ANx pins are AnalogInput
0015B0 6EC1           00098         movWF   ADCON1          ;                  by Default !!!
                      00099 
0015B2 8E8C           00100         bSf     LCD_PWRw        ; Turn on LCD
0015B4 0EFF           00101         movLW   0xff            ; Wait ~15ms @ 20 MHz
0015B6 6E03           00102         movWF   COUNTER
0015B8 0EFF           00103 lil1    movLW   0xFF
0015BA 6E04           00104         movWF   delay
0015BC D???           00105         rCall   DelayXCycles
0015BE 2E03           00106         decfsz  COUNTER,F       ;skip over after 255 operations
0015C0 D???           00107         bra     lil1
                      00108         
0015C2 0E30           00109         movLW   b'00110000'             ;#1 Send control sequence 
0015C4 6E05           00110         movWF   temp_wr
0015C6 90D8           00111         bCf     STATUS,C
0015C8 D???           00112         rCall   LCDWriteNibble
                      00113 
0015CA 0EFF           00114         movLW   0xff                    ;Wait ~4ms @ 20 MHz
0015CC 6E03           00115         movWF   COUNTER
0015CE 0EFF           00116 lil2    movLW   0xFF
0015D0 6E04           00117         movWF   delay
0015D2 D???           00118         rCall   DelayXCycles
0015D4 2E03           00119         decfsz  COUNTER,F
0015D6 D???           00120         bra     lil2
MPASM 5.77                 THE_REAL_DEAL.ASM   12-13-2019  1:09:44         PAGE 52


LOC  OBJECT CODE     LINE SOURCE TEXT
  VALUE

                      00121 
0015D8 0E30           00122         movLW   b'00110000'             ;#2 Send control sequence
0015DA 6E05           00123         movWF   temp_wr
0015DC 90D8           00124         bCf     STATUS,C
0015DE D???           00125         rCall   LCDWriteNibble
                      00126 
0015E0 0EFF           00127         movLW   0xFF                    ;Wait ~100us @ 20 MHz
0015E2 6E04           00128         movWF   delay
0015E4 D???           00129         rCall   DelayXCycles
                      00130                                                 
0015E6 0E18           00131         movLW   b'0011000'              ;#3 Send control sequence
0015E8 6E05           00132         movWF   temp_wr
0015EA 90D8           00133         bCf     STATUS,C
0015EC D???           00134         rCall   LCDWriteNibble
                      00135 
0015EE 0EFF           00136         movLW   0xFF                    ;Wait ~100us @ 20 MHz
0015F0 6E04           00137         movWF   delay
0015F2 D???           00138         rCall   DelayXCycles
                      00139 
0015F4 0E20           00140         movLW   b'00100000'             ;#4 set 4-bit
0015F6 6E05           00141         movWF   temp_wr
0015F8 90D8           00142         bCf     STATUS,C
0015FA D???           00143         rCall   LCDWriteNibble
                      00144 
0015FC D???           00145         rCall   LCDBusy                 ;Busy?
                      00146                                 
0015FE 0E28           00147         movLW   b'00101000'             ;#5   Function set
001600 6E05           00148         movWF   temp_wr
001602 D???           00149         rCall   i_write
                      00150 
001604 0E0D           00151         movLW   b'00001101'             ;#6  Display = ON
001606 6E05           00152         movWF   temp_wr
001608 D???           00153         rCall   i_write
                      00154                         
00160A 0E01           00155         movLW   b'00000001'             ;#7   Display Clear
00160C 6E05           00156         movWF   temp_wr
00160E D???           00157         rCall   i_write
                      00158 
001610 0E06           00159         movLW   b'00000110'             ;#8   Entry Mode
001612 6E05           00160         movWF   temp_wr
001614 D???           00161         rCall   i_write 
                      00162 
001616 0E80           00163         movLW   b'10000000'             ;DDRAM addresss 0000
001618 6E05           00164         movWF   temp_wr
00161A D???           00165         rCall   i_write
                      00166 
00161C 0012           00167         Return
                      00168 
                      00169 ;***************************************************************************
00161E                00170 LCDLine_1:                      ; Select Line 1
00161E 0E80           00171         movLW   0x80
001620 6E05           00172         movWF   temp_wr
001622 D???           00173         rCall   i_write         ;instruction write subroutine
MPASM 5.77                 THE_REAL_DEAL.ASM   12-13-2019  1:09:44         PAGE 53


LOC  OBJECT CODE     LINE SOURCE TEXT
  VALUE

001624 0012           00174         return                  ;This sets the display cursor to line 1 
                      00175 
001626                00176 LCDLine_2:                      ; Select Line 2         
001626 0EC0           00177         movLW   0xC0    
001628 6E05           00178         movWF   temp_wr
00162A D???           00179         rCall   i_write         ;do instruction write
00162C 0012           00180         return                  ;this sets line 2
                      00181 
                      00182 ;******************************************************************
00162E                00183 i_write:                        ;write an instruction
00162E D???           00184         rCall   LCDBusy                 
001630 90D8           00185         bCf     STATUS, C       ;clear the LCD_RS bit
001632 D???           00186         rCall   LCDWrite        ;write the instruction
001634 0012           00187         return
                      00188 
                      00189 ;******************************************************************
001636                00190 d_write:                        ; write data
001636 D???           00191         rCall   LCDBusy         ; check if the LCD controller is busy
001638 80D8           00192         bSf     STATUS, C       ; set the carry bit in the status register. 
                      00193                                 ; this will set the LCD_RS bit for transmission
00163A D???           00194         rCall   LCDWrite        ; write the data to the LCD
00163C 0012           00195         return
                      00196 
                      00197 ; =====================================================================
                      00198 ; Routines used internally to p18LCD_Subs
                      00199 ; *********************************************************************
00163E                00200 DelayXCycles:
00163E 2E04           00201         decfsz  delay,F
001640 D???           00202         bra     DelayXCycles
001642 0012           00203         return
                      00204 
                      00205 ; *******************************************************************
                      00206 ; LCDWrite sends the data in temp_wr, by first sending the upper nibble
                      00207 ;                                     and then sending the lower nibble. 
001644                00208 LCDWrite:                               ;writes the data in temp_wr to the LCD
                      00209 ;       rCall   LCDBusy
001644 D???           00210         rCall   LCDWriteNibble          ;first, sent the upper nibble
001646 3A05           00211         swapf   temp_wr,F               ;then swap the upper and lower nibbles
001648 D???           00212         rCall   LCDWriteNibble          ;and write the lower nibble
00164A 3A05           00213         swapf   temp_wr,F               ;then swap them back again
                      00214 
00164C 0012           00215         return                          ;done
                      00216 
                      00217 
                      00218 ; *******************************************************************
                      00219 ; LCDWriteNibble sends the upper 4 bits of temp_wr to the LCD controller
                      00220 ;     _    ______________________________
                      00221 ; RS  _>--<______________________________
                      00222 ;     _____
                      00223 ; RW       \_____________________________
                      00224 ;                  __________________
                      00225 ; E   ____________/                  \___
                      00226 ;     _____________                ______
MPASM 5.77                 THE_REAL_DEAL.ASM   12-13-2019  1:09:44         PAGE 54


LOC  OBJECT CODE     LINE SOURCE TEXT
  VALUE

                      00227 ; DB  _____________>--------------<______
                      00228 ;
                      00229 ; ===========================================================================
00164E                00230 LCDWriteNibble:                 ;sends the upper 4 bits of temp_wr to the LCD
00164E A0D8           00231         btFsS   STATUS, C               ; Set the register select
001650 988C           00232         bCf     LCD_RSw                 ; depending upon the carry flag
001652 B0D8           00233         btFsC   STATUS, C       
001654 888C           00234         bSf     LCD_RSw
                      00235 
001656 9A8C           00236         bCf     LCD_RWw                 ; Set write mode
                      00237 
001658 9095           00238         bCf     LCD_D4_DIR              ; Set data bits to outputs
00165A 9295           00239         bCf     LCD_D5_DIR
00165C 9495           00240         bCf     LCD_D6_DIR
00165E 9695           00241         bCf     LCD_D7_DIR
                      00242 
001660 0000           00243         NOP                             ; Small delay
001662 0000           00244         NOP
001664 8C8C           00245         bSf     LCD_Ew                  ; Setup to clock data
                      00246 
                      00247                         ; ----- Set the data bus lines from temp_wr
                      00248                         ;   This is "essentially"  movFF temp_wr,LATD ;
                      00249                         ;   but it _does_Not_presume D4:D7 are bits <4:7>
                      00250                         ;   so it must deal with each bit individually.
001666 AE05           00251         btFsS   temp_wr, 7
001668 968C           00252         bCf     LCD_D7w         
00166A BE05           00253         btFsC   temp_wr, 7
00166C 868C           00254         bSf     LCD_D7w 
                      00255 
00166E AC05           00256         btFsS   temp_wr, 6
001670 948C           00257         bCf     LCD_D6w         
001672 BC05           00258         btFsC   temp_wr, 6
001674 848C           00259         bSf     LCD_D6w 
                      00260 
001676 AA05           00261         btFsS   temp_wr, 5
001678 928C           00262         bCf     LCD_D5w         
00167A BA05           00263         btFsC   temp_wr, 5
00167C 828C           00264         bSf     LCD_D5w 
                      00265 
00167E A805           00266         btFsS   temp_wr, 4
001680 908C           00267         bCf     LCD_D4w 
001682 B805           00268         btFsC   temp_wr, 4
001684 808C           00269         bSf     LCD_D4w 
                      00270 
001686 0000           00271         NOP
001688 0000           00272         NOP
00168A 9C8C           00273         bCf     LCD_Ew          ; Send the data
                      00274 
00168C 0012           00275         Return
                      00276 
                      00277 ; *******************************************************************
                      00278 ; LCDRead reads the LCD. It does a full 8 bit read by doing
                      00279 ;                        a pair of 4 bit reads. 
MPASM 5.77                 THE_REAL_DEAL.ASM   12-13-2019  1:09:44         PAGE 55


LOC  OBJECT CODE     LINE SOURCE TEXT
  VALUE

                      00280 ;
                      00281 ;     _____    _____________________________________________________
                      00282 ; RS  _____>--<_____________________________________________________
                      00283 ;               ____________________________________________________
                      00284 ; RW  _________/
                      00285 ;                  ____________________      ____________________
                      00286 ; E   ____________/                    \____/                    \__
                      00287 ;     _________________                __________                ___
                      00288 ; DB  _________________>--------------<__________>--------------<___
                      00289 ;
                      00290 ; ===========================================================================
00168E                00291 LCDRead:
00168E 8095           00292         bSf     LCD_D4_DIR              ; Set data bits to inputs
001690 8295           00293         bSf     LCD_D5_DIR              ;  by setting all the bits to 1
001692 8495           00294         bSf     LCD_D6_DIR              ;  they are all inputs
001694 8695           00295         bSf     LCD_D7_DIR              
                      00296 
001696 A0D8           00297         btFsS   STATUS, C       ; Set the register select
001698 988C           00298         bCf     LCD_RSw         ;just as before, when the routine is called
00169A B0D8           00299         btFsC   STATUS, C       ;the state of the carry bit determines the
00169C 888C           00300         bSf     LCD_RSw         ;state of the LCD_RS bit.
                      00301 
00169E 8A8C           00302         bSf     LCD_RWw         ;Read = 1
0016A0 0000           00303         NOP
0016A2 0000           00304         NOP                     
                      00305 
0016A4 8C8C           00306         bSf     LCD_Ew          ; Set clock line
0016A6 0000           00307         NOP
0016A8 0000           00308         NOP
0016AA 0000           00309         NOP
0016AC 0000           00310         NOP
                      00311 
0016AE 8E06           00312         bSf     temp_rd, 7
0016B0 A683           00313         btFsS   LCD_D7          ; Set D4 - D7
0016B2 9E06           00314         bCf     temp_rd, 7
                      00315 
0016B4 8C06           00316         bSf     temp_rd, 6
0016B6 A483           00317         btFsS   LCD_D6                  
0016B8 9C06           00318         bCf     temp_rd, 6
                      00319 
0016BA 8A06           00320         bSf     temp_rd, 5
0016BC A283           00321         btFsS   LCD_D5                  
0016BE 9A06           00322         bCf     temp_rd, 5
                      00323 
0016C0 8806           00324         bSf     temp_rd, 4
0016C2 A083           00325         btFsS   LCD_D4
0016C4 9806           00326         bCf     temp_rd, 4
                      00327 
0016C6 9C8C           00328         bCf     LCD_Ew          ; Lower clock line
0016C8 0000           00329         NOP
0016CA 0000           00330         NOP
0016CC 0000           00331         NOP
0016CE 0000           00332         NOP
MPASM 5.77                 THE_REAL_DEAL.ASM   12-13-2019  1:09:44         PAGE 56


LOC  OBJECT CODE     LINE SOURCE TEXT
  VALUE

0016D0 0000           00333         NOP
0016D2 0000           00334         NOP
0016D4 0000           00335         NOP
0016D6 0000           00336         NOP
                      00337 
0016D8 8C8C           00338         bSf     LCD_Ew          ; Raise clock line
0016DA 0000           00339         NOP
0016DC 0000           00340         NOP
                      00341 
0016DE 8606           00342         bSf     temp_rd, 3
0016E0 A683           00343         btFsS   LCD_D7                  ; Get low nibble
0016E2 9606           00344         bCf     temp_rd, 3
                      00345 
0016E4 8406           00346         bSf     temp_rd, 2
0016E6 A483           00347         btFsS   LCD_D6                  
0016E8 9406           00348         bCf     temp_rd, 2
                      00349 
0016EA 8206           00350         bSf     temp_rd, 1
0016EC A283           00351         btFsS   LCD_D5                  
0016EE 9206           00352         bCf     temp_rd, 1
                      00353 
0016F0 8006           00354         bSf     temp_rd, 0
0016F2 A083           00355         btFsS   LCD_D4                  
0016F4 9006           00356         bCf     temp_rd, 0
                      00357 
0016F6 9C8C           00358         bCf     LCD_Ew          ; Lower Clock line
                      00359 
0016F8                00360 FinRd
0016F8 0012           00361         Return
                      00362 
                      00363 ; *******************************************************************
0016FA                00364 LCDBusy:                ; WAIT UNTIL the Busy Flag is Clear
0016FA 90D8           00365         bCf     STATUS, C       ; read the LCD with LCD_RS clear
0016FC D???           00366         rCall   LCDRead 
0016FE BE06           00367         btFsC   temp_rd, 7
001700 D???           00368         bra    LCDBusy
001702 0012           00369         RETURN
                      00370 
                      00371         END
MPASM 5.77                 THE_REAL_DEAL.ASM   12-13-2019  1:09:44         PAGE 57


SYMBOL TABLE
  LABEL                             VALUE 

A                                 00000000
ABDEN                             00000000
ABDOVF                            00000007
ACCESS                            00000000
ACKDT                             00000005
ACKEN                             00000004
ACKSTAT                           00000006
ACKTIM                            00000007
ACQT0                             00000003
ACQT1                             00000004
ACQT2                             00000005
ADCMD                             00000000
ADCON0                            00000FC2
ADCON1                            00000FC1
ADCON2                            00000FC0
ADCS0                             00000000
ADCS1                             00000001
ADCS2                             00000002
ADDEN                             00000003
ADDEN1                            00000003
ADDEN2                            00000003
ADEN                              00000003
ADFM                              00000007
ADIE                              00000006
ADIF                              00000006
ADIP                              00000006
ADON                              00000000
ADRES                             00000FC3
ADRESH                            00000FC4
ADRESL                            00000FC3
AHEN                              00000001
AN0                               00000000
AN1                               00000001
AN10                              00000001
AN11                              00000004
AN12                              00000000
AN13                              00000005
AN14                              00000002
AN15                              00000003
AN16                              00000004
AN17                              00000005
AN18                              00000006
AN19                              00000007
AN2                               00000002
AN20                              00000000
AN21                              00000001
AN22                              00000002
AN23                              00000003
AN24                              00000004
AN25                              00000005
AN26                              00000006
AN27                              00000007
AN3                               00000003
MPASM 5.77                 THE_REAL_DEAL.ASM   12-13-2019  1:09:44         PAGE 58


SYMBOL TABLE
  LABEL                             VALUE 

AN4                               00000005
AN5                               00000000
AN6                               00000001
AN7                               00000002
AN8                               00000002
AN9                               00000003
ANSA0                             00000000
ANSA1                             00000001
ANSA2                             00000002
ANSA3                             00000003
ANSA5                             00000005
ANSB0                             00000000
ANSB1                             00000001
ANSB2                             00000002
ANSB3                             00000003
ANSB4                             00000004
ANSB5                             00000005
ANSC2                             00000002
ANSC3                             00000003
ANSC4                             00000004
ANSC5                             00000005
ANSC6                             00000006
ANSC7                             00000007
ANSD0                             00000000
ANSD1                             00000001
ANSD2                             00000002
ANSD3                             00000003
ANSD4                             00000004
ANSD5                             00000005
ANSD6                             00000006
ANSD7                             00000007
ANSE0                             00000000
ANSE1                             00000001
ANSE2                             00000002
ANSELA                            00000F38
ANSELB                            00000F39
ANSELC                            00000F3A
ANSELD                            00000F3B
ANSELE                            00000F3C
BANKED                            00000001
BAUD1CON                          00000FB8
BAUD2CON                          00000F70
BAUDCON                           00000FB8
BAUDCON1                          00000FB8
BAUDCON2                          00000F70
BAUDCTL                           00000FB8
BCL1IE                            00000003
BCL1IF                            00000003
BCL1IP                            00000003
BCL2IE                            00000006
BCL2IF                            00000006
BCL2IP                            00000006
BCLIE                             00000003
MPASM 5.77                 THE_REAL_DEAL.ASM   12-13-2019  1:09:44         PAGE 59


SYMBOL TABLE
  LABEL                             VALUE 

BCLIF                             00000003
BCLIP                             00000003
BF                                00000000
BGST                              00000005
BGVST                             00000006
BLK_CNT                           00000F6E
BOEN                              00000004
BOR                               00000000
BRG16                             00000003
BRGH                              00000002
BRGH1                             00000002
BRGH2                             00000002
BSR                               00000FE0
C                                 00000000
C12IN0M                           00000000
C12IN0N                           00000000
C12IN1M                           00000001
C12IN1N                           00000001
C12IN2M                           00000003
C12IN2N                           00000003
C12IN3M                           00000001
C12IN3N                           00000001
C1CH0                             00000000
C1CH1                             00000001
C1HYS                             00000003
C1IE                              00000006
C1IF                              00000006
C1INP                             00000003
C1IP                              00000006
C1OE                              00000005
C1ON                              00000007
C1OUT_CM1CON                      00000006
C1OUT_CM1CON0                     00000006
C1OUT_PORTA                       00000004
C1POL                             00000004
C1R                               00000002
C1RSEL                            00000005
C1SP                              00000003
C1SYNC                            00000001
C1TSEL0                           00000000
C1TSEL1                           00000001
C2CH0                             00000000
C2CH1                             00000001
C2HYS                             00000002
C2IE                              00000005
C2IF                              00000005
C2INP                             00000002
C2IP                              00000005
C2OE                              00000005
C2ON                              00000007
C2OUT_CM2CON                      00000006
C2OUT_CM2CON0                     00000006
C2OUT_PORTA                       00000005
MPASM 5.77                 THE_REAL_DEAL.ASM   12-13-2019  1:09:44         PAGE 60


SYMBOL TABLE
  LABEL                             VALUE 

C2POL                             00000004
C2R                               00000002
C2RSEL                            00000004
C2SP                              00000003
C2SYNC                            00000000
C2TSEL0                           00000003
C2TSEL1                           00000004
C3TSEL0                           00000006
C3TSEL1                           00000007
C4TSEL0                           00000000
C4TSEL1                           00000001
C5TSEL0                           00000002
C5TSEL1                           00000003
CCP1                              00000002
CCP1AS0                           00000004
CCP1AS1                           00000005
CCP1AS2                           00000006
CCP1ASE                           00000007
CCP1CON                           00000FBD
CCP1IE                            00000002
CCP1IF                            00000002
CCP1IP                            00000002
CCP1M0                            00000000
CCP1M1                            00000001
CCP1M2                            00000002
CCP1M3                            00000003
CCP1MD                            00000000
CCP2AS                            00000F64
CCP2AS0                           00000004
CCP2AS1                           00000005
CCP2AS2                           00000006
CCP2ASE                           00000007
CCP2CON                           00000F66
CCP2IE                            00000000
CCP2IF                            00000000
CCP2IP                            00000000
CCP2M0                            00000000
CCP2M1                            00000001
CCP2M2                            00000002
CCP2M3                            00000003
CCP2MD                            00000001
CCP2_PORTB                        00000003
CCP2_PORTC                        00000001
CCP3AS                            00000F5B
CCP3AS0                           00000004
CCP3AS1                           00000005
CCP3AS2                           00000006
CCP3ASE                           00000007
CCP3CON                           00000F5D
CCP3IE                            00000000
CCP3IF                            00000000
CCP3IP                            00000000
CCP3M0                            00000000
MPASM 5.77                 THE_REAL_DEAL.ASM   12-13-2019  1:09:44         PAGE 61


SYMBOL TABLE
  LABEL                             VALUE 

CCP3M1                            00000001
CCP3M2                            00000002
CCP3M3                            00000003
CCP3MD                            00000002
CCP3_PORTB                        00000005
CCP3_PORTE                        00000000
CCP4                              00000001
CCP4CON                           00000F57
CCP4IE                            00000001
CCP4IF                            00000001
CCP4IP                            00000001
CCP4M0                            00000000
CCP4M1                            00000001
CCP4M2                            00000002
CCP4M3                            00000003
CCP4MD                            00000003
CCP5                              00000002
CCP5CON                           00000F54
CCP5IE                            00000002
CCP5IF                            00000002
CCP5IP                            00000002
CCP5M0                            00000000
CCP5M1                            00000001
CCP5M2                            00000002
CCP5M3                            00000003
CCP5MD                            00000004
CCPR1                             00000FBE
CCPR1H                            00000FBF
CCPR1L                            00000FBE
CCPR2                             00000F67
CCPR2H                            00000F68
CCPR2L                            00000F67
CCPR3                             00000F5E
CCPR3H                            00000F5F
CCPR3L                            00000F5E
CCPR4                             00000F58
CCPR4H                            00000F59
CCPR4L                            00000F58
CCPR5                             00000F55
CCPR5H                            00000F56
CCPR5L                            00000F55
CCPTMRS0                          00000F49
CCPTMRS1                          00000F48
CFGS                              00000006
CHECK1                            00000FCA
CHECK2                            00000FD4
CHECK3                            00000FDE
CHECK4                            00000FE8
CHECKW1                           0000106E
CHECKW2                           00001084
CHECKW3                           0000109A
CHECKW4                           000010B0
CHS0                              00000002
MPASM 5.77                 THE_REAL_DEAL.ASM   12-13-2019  1:09:44         PAGE 62


SYMBOL TABLE
  LABEL                             VALUE 

CHS1                              00000003
CHS2                              00000004
CHS3                              00000005
CHS4                              00000006
CK                                00000006
CK1                               00000006
CK2                               00000006
CKE                               00000006
CKP                               00000004
CKTXP                             00000004
CM12CON                           00000F77
CM1CON                            00000F79
CM1CON0                           00000F79
CM2CON                            00000F78
CM2CON0                           00000F78
CM2CON1                           00000F77
CMP1MD                            00000001
CMP2MD                            00000002
CNT                               00000004
CONTINUE                          000010C6
CONTINUE_ONES                     000010D2
CONTINUE_TENS                     000011F2
COUNTER                           00000003
COUNT_BLACK                       00000057
COUNT_WHITE                       00000067
CREN                              00000004
CREN1                             00000004
CREN2                             00000004
CSRC                              00000007
CSRC1                             00000007
CSRC2                             00000007
CTED1                             00000002
CTED2                             00000003
CTMUCON0                          00000F45
CTMUCON1                          00000F44
CTMUCONH                          00000F45
CTMUCONL                          00000F44
CTMUEN                            00000007
CTMUICON                          00000F43
CTMUICONH                         00000F43
CTMUIE                            00000003
CTMUIF                            00000003
CTMUIP                            00000003
CTMUMD                            00000003
CTMUSIDL                          00000005
CTPLS                             00000002
CTTRIG                            00000000
CVREF                             00000002
Count0                            00000002
Count1                            00000001
Count2                            00000000
D                                 00000005
DACCON0                           00000F41
MPASM 5.77                 THE_REAL_DEAL.ASM   12-13-2019  1:09:44         PAGE 63


SYMBOL TABLE
  LABEL                             VALUE 

DACCON1                           00000F40
DACEN                             00000007
DACLPS                            00000006
DACNSS                            00000000
DACOE                             00000005
DACOUT                            00000002
DACPSS0                           00000002
DACPSS1                           00000003
DACR0                             00000000
DACR1                             00000001
DACR2                             00000002
DACR3                             00000003
DACR4                             00000004
DC                                00000001
DC1B0                             00000004
DC1B1                             00000005
DC2B0                             00000004
DC2B1                             00000005
DC3B0                             00000004
DC3B1                             00000005
DC4B0                             00000004
DC4B1                             00000005
DC5B0                             00000004
DC5B1                             00000005
DDRA                              TRISA
DDRB                              TRISB
DDRC                              TRISC
DDRD                              TRISD
DDRE                              TRISE
DHEN                              00000000
DIG1                              00000017
DIG2                              00000018
DIG3                              00000019
DIG4                              0000001A
DONE                              00000001
DONE1                             00000FEE
DT1                               00000007
DT2                               00000007
DTRXP                             00000005
D_A                               00000005
D_NOT_A                           00000005
DelayXCycles                      0000163E
DisplayCNT                        00000005
ECCP1AS                           00000FB6
ECCP2AS                           00000F64
ECCP3AS                           00000F5B
ECCPAS                            00000FB6
ECCPAS0                           00000004
ECCPAS1                           00000005
ECCPAS2                           00000006
ECCPASE                           00000007
EDG1POL                           00000004
EDG1SEL0                          00000002
MPASM 5.77                 THE_REAL_DEAL.ASM   12-13-2019  1:09:44         PAGE 64


SYMBOL TABLE
  LABEL                             VALUE 

EDG1SEL1                          00000003
EDG1STAT                          00000000
EDG2POL                           00000007
EDG2SEL0                          00000005
EDG2SEL1                          00000006
EDG2STAT                          00000001
EDGEN                             00000003
EDGSEQEN                          00000002
EEADR                             00000FA9
EEADR0                            00000000
EEADR1                            00000001
EEADR2                            00000002
EEADR3                            00000003
EEADR4                            00000004
EEADR5                            00000005
EEADR6                            00000006
EEADR7                            00000007
EEADR8                            00000000
EEADR9                            00000001
EEADRH                            00000FAA
EECON1                            00000FA6
EECON2                            00000FA7
EEDATA                            00000FA8
EEIE                              00000004
EEIF                              00000004
EEIP                              00000004
EEPGD                             00000007
FAST                              00000001
FERR                              00000002
FERR1                             00000002
FERR2                             00000002
FLT0                              00000000
FREE                              00000004
FSR0                              00000000
FSR0H                             00000FEA
FSR0L                             00000FE9
FSR1                              00000001
FSR1H                             00000FE2
FSR1L                             00000FE1
FSR2                              00000002
FSR2H                             00000FDA
FSR2L                             00000FD9
FVRCON                            00000F42
FVREN                             00000007
FVRS0                             00000004
FVRS1                             00000005
FVRST                             00000006
FinRd                             000016F8
GAME_LOST                         0000136C
GAME_OVER                         00001598
GAME_WON                          00001482
GCEN                              00000007
GENERATOR                         00000156
MPASM 5.77                 THE_REAL_DEAL.ASM   12-13-2019  1:09:44         PAGE 65


SYMBOL TABLE
  LABEL                             VALUE 

GIE                               00000007
GIEH                              00000007
GIEL                              00000006
GIE_GIEH                          00000007
GO                                00000001
GO_DONE                           00000001
GO_NOT_DONE                       00000001
GUESS1                            00000000
GUESS2                            00000001
GUESS3                            00000002
GUESS4                            00000003
GUESS_COUNTER                     00000006
GUESS_DIGITS                      00000D3C
HFIOFS                            00000002
HLVDCON                           00000F9C
HLVDEN                            00000004
HLVDIE                            00000002
HLVDIF                            00000002
HLVDIN                            00000005
HLVDIP                            00000002
HLVDL0                            00000000
HLVDL1                            00000001
HLVDL2                            00000002
HLVDL3                            00000003
IDISSEN                           00000001
IDLEN                             00000007
INCREMENTCOUNT1                   00000F92
INCREMENTCOUNT2                   00000FA0
INCREMENTCOUNT3                   00000FAE
INCREMENTCOUNT4                   00000FBC
INCREMENT_WHITE1_2                00001014
INCREMENT_WHITE1_3                00001032
INCREMENT_WHITE1_4                00001050
INCREMENT_WHITE2_1                00000FF6
INCREMENT_WHITE2_3                0000103C
INCREMENT_WHITE2_4                0000105A
INCREMENT_WHITE3_1                00001000
INCREMENT_WHITE3_2                0000101E
INCREMENT_WHITE3_4                00001064
INCREMENT_WHITE4_1                0000100A
INCREMENT_WHITE4_2                00001028
INCREMENT_WHITE4_3                00001046
INDF0                             00000FEF
INDF1                             00000FE7
INDF2                             00000FDF
INNERCOUNTER                      00000007
INT0                              00000000
INT0E                             00000004
INT0F                             00000001
INT0IE                            00000004
INT0IF                            00000001
INT1                              00000001
INT1E                             00000003
MPASM 5.77                 THE_REAL_DEAL.ASM   12-13-2019  1:09:44         PAGE 66


SYMBOL TABLE
  LABEL                             VALUE 

INT1F                             00000000
INT1IE                            00000003
INT1IF                            00000000
INT1IP                            00000006
INT1P                             00000006
INT2                              00000002
INT2E                             00000004
INT2F                             00000001
INT2IE                            00000004
INT2IF                            00000001
INT2IP                            00000007
INT2P                             00000007
INTCON                            00000FF2
INTCON2                           00000FF1
INTCON3                           00000FF0
INTEDG0                           00000006
INTEDG1                           00000005
INTEDG2                           00000004
INTSRC                            00000007
IOCB                              00000F62
IOCB4                             00000004
IOCB5                             00000005
IOCB6                             00000006
IOCB7                             00000007
IOFS                              00000002
IPEN                              00000007
IPR1                              00000F9F
IPR2                              00000FA2
IPR3                              00000FA5
IPR4                              00000F7C
IPR5                              00000F7F
IRCF0                             00000004
IRCF1                             00000005
IRCF2                             00000006
IRNG0                             00000000
IRNG1                             00000001
IRVST                             00000005
ITRIM0                            00000002
ITRIM1                            00000003
ITRIM2                            00000004
ITRIM3                            00000005
ITRIM4                            00000006
ITRIM5                            00000007
IVRST                             00000005
KBI0                              00000004
KBI1                              00000005
KBI2                              00000006
KBI3                              00000007
LATA                              00000F89
LATA0                             00000000
LATA1                             00000001
LATA2                             00000002
LATA3                             00000003
MPASM 5.77                 THE_REAL_DEAL.ASM   12-13-2019  1:09:44         PAGE 67


SYMBOL TABLE
  LABEL                             VALUE 

LATA4                             00000004
LATA5                             00000005
LATA6                             00000006
LATA7                             00000007
LATB                              00000F8A
LATB0                             00000000
LATB1                             00000001
LATB2                             00000002
LATB3                             00000003
LATB4                             00000004
LATB5                             00000005
LATB6                             00000006
LATB7                             00000007
LATC                              00000F8B
LATC0                             00000000
LATC1                             00000001
LATC2                             00000002
LATC3                             00000003
LATC4                             00000004
LATC5                             00000005
LATC6                             00000006
LATC7                             00000007
LATD                              00000F8C
LATD0                             00000000
LATD1                             00000001
LATD2                             00000002
LATD3                             00000003
LATD4                             00000004
LATD5                             00000005
LATD6                             00000006
LATD7                             00000007
LATE                              00000F8D
LATE0                             00000000
LATE1                             00000001
LATE2                             00000002
LCDBusy                           000016FA
LCDInit                           0000159C
LCDLine_1                         0000161E
LCDLine_2                         00001626
LCDRead                           0000168E
LCDWrite                          00001644
LCDWriteNibble                    0000164E
LCD_D4                            PORTD, 0
LCD_D4_DIR                        TRISD, 0
LCD_D4w                           LATD, 0
LCD_D5                            PORTD, 1
LCD_D5_DIR                        TRISD, 1
LCD_D5w                           LATD, 1
LCD_D6                            PORTD, 2
LCD_D6_DIR                        TRISD, 2
LCD_D6w                           LATD, 2
LCD_D7                            PORTD, 3
LCD_D7_DIR                        TRISD, 3
MPASM 5.77                 THE_REAL_DEAL.ASM   12-13-2019  1:09:44         PAGE 68


SYMBOL TABLE
  LABEL                             VALUE 

LCD_D7w                           LATD, 3
LCD_E_DIR                         TRISD, 6
LCD_Ew                            LATD, 6
LCD_PWR_DIR                       TRISD, 7
LCD_PWRw                          LATD, 7
LCD_RS_DIR                        TRISD, 4
LCD_RSw                           LATD, 4
LCD_RW_DIR                        TRISD, 5
LCD_RWw                           LATD, 5
LFIOFS                            00000000
LOOP1b                            00000160
LOOP2b                            00000166
LOOP3b                            0000016C
LOOP4b                            00000172
LVDCON                            00000F9C
LVDEN                             00000004
LVDIE                             00000002
LVDIF                             00000002
LVDIN                             00000005
LVDIP                             00000002
LVDL0                             00000000
LVDL1                             00000001
LVDL2                             00000002
LVDL3                             00000003
LVV0                              00000000
LVV1                              00000001
LVV2                              00000002
LVV3                              00000003
MC1OUT                            00000007
MC2OUT                            00000006
MCLR                              00000003
MFIOFS                            00000001
MFIOSEL                           00000004
MSK0                              00000000
MSK1                              00000001
MSK2                              00000002
MSK3                              00000003
MSK4                              00000004
MSK5                              00000005
MSK6                              00000006
MSK7                              00000007
MSSP1MD                           00000006
MSSP2MD                           00000007
Main                              00000004
N                                 00000004
NOT_A                             00000005
NOT_ADDRESS                       00000005
NOT_BOR                           00000000
NOT_DONE                          00000001
NOT_MCLR                          00000003
NOT_PD                            00000002
NOT_POR                           00000001
NOT_RBPU                          00000007
MPASM 5.77                 THE_REAL_DEAL.ASM   12-13-2019  1:09:44         PAGE 69


SYMBOL TABLE
  LABEL                             VALUE 

NOT_RI                            00000004
NOT_SS                            00000005
NOT_SS1                           00000005
NOT_SS2                           00000003
NOT_T1SYNC                        00000002
NOT_T3SYNC                        00000002
NOT_T5SYNC                        00000002
NOT_TO                            00000003
NOT_W                             00000002
NOT_WRITE                         00000002
NVCFG0                            00000000
NVCFG1                            00000001
NextRow                           0000134E
OERR                              00000001
OERR1                             00000001
OERR2                             00000001
OSCCON                            00000FD3
OSCCON2                           00000FD2
OSCFIE                            00000007
OSCFIF                            00000007
OSCFIP                            00000007
OSCTUNE                           00000F9B
OSTS                              00000003
OV                                00000003
P                                 00000004
P1A                               00000002
P1B                               00000005
P1C                               00000006
P1D                               00000007
P1DC0                             00000000
P1DC1                             00000001
P1DC2                             00000002
P1DC3                             00000003
P1DC4                             00000004
P1DC5                             00000005
P1DC6                             00000006
P1M0                              00000006
P1M1                              00000007
P1RSEN                            00000007
P1SSAC0                           00000002
P1SSAC1                           00000003
P1SSBD0                           00000000
P1SSBD1                           00000001
P2A_PORTB                         00000003
P2A_PORTC                         00000001
P2B_PORTC                         00000000
P2B_PORTD                         00000002
P2C                               00000003
P2D                               00000004
P2DC0                             00000000
P2DC1                             00000001
P2DC2                             00000002
P2DC3                             00000003
MPASM 5.77                 THE_REAL_DEAL.ASM   12-13-2019  1:09:44         PAGE 70


SYMBOL TABLE
  LABEL                             VALUE 

P2DC4                             00000004
P2DC5                             00000005
P2DC6                             00000006
P2M0                              00000006
P2M1                              00000007
P2RSEN                            00000007
P2SSAC0                           00000002
P2SSAC1                           00000003
P2SSBD0                           00000000
P2SSBD1                           00000001
P3A_PORTB                         00000005
P3A_PORTE                         00000000
P3B                               00000001
P3DC0                             00000000
P3DC1                             00000001
P3DC2                             00000002
P3DC3                             00000003
P3DC4                             00000004
P3DC5                             00000005
P3DC6                             00000006
P3M0                              00000006
P3M1                              00000007
P3RSEN                            00000007
P3SSAC0                           00000002
P3SSAC1                           00000003
P3SSBD0                           00000000
P3SSBD1                           00000001
PC                                00000FF9
PCIE                              00000006
PCL                               00000FF9
PCLATH                            00000FFA
PCLATU                            00000FFB
PD                                00000002
PDC0                              00000000
PDC1                              00000001
PDC2                              00000002
PDC3                              00000003
PDC4                              00000004
PDC5                              00000005
PDC6                              00000006
PEIE                              00000006
PEIE_GIEL                         00000006
PEN                               00000002
PGC                               00000006
PGD                               00000007
PIE1                              00000F9D
PIE2                              00000FA0
PIE3                              00000FA3
PIE4                              00000F7A
PIE5                              00000F7D
PIR1                              00000F9E
PIR2                              00000FA1
PIR3                              00000FA4
MPASM 5.77                 THE_REAL_DEAL.ASM   12-13-2019  1:09:44         PAGE 71


SYMBOL TABLE
  LABEL                             VALUE 

PIR4                              00000F7B
PIR5                              00000F7E
PLLEN                             00000006
PLLRDY                            00000007
PLUSW0                            00000FEB
PLUSW1                            00000FE3
PLUSW2                            00000FDB
PMD0                              00000F3F
PMD1                              00000F3E
PMD2                              00000F3D
POR                               00000001
PORTA                             00000F80
PORTB                             00000F81
PORTC                             00000F82
PORTD                             00000F83
PORTE                             00000F84
POSTDEC0                          00000FED
POSTDEC1                          00000FE5
POSTDEC2                          00000FDD
POSTINC0                          00000FEE
POSTINC1                          00000FE6
POSTINC2                          00000FDE
PR2                               00000FBB
PR4                               00000F52
PR6                               00000F4B
PREINC0                           00000FEC
PREINC1                           00000FE4
PREINC2                           00000FDC
PRISD                             00000002
PROD                              00000FF3
PRODH                             00000FF4
PRODL                             00000FF3
PRSEN                             00000007
PSA                               00000003
PSS1AC0                           00000002
PSS1AC1                           00000003
PSS1BD0                           00000000
PSS1BD1                           00000001
PSS2AC0                           00000002
PSS2AC1                           00000003
PSS2BD0                           00000000
PSS2BD1                           00000001
PSS3AC0                           00000002
PSS3AC1                           00000003
PSS3BD0                           00000000
PSS3BD1                           00000001
PSSAC0                            00000002
PSSAC1                            00000003
PSSBD0                            00000000
PSSBD1                            00000001
PSTR1CON                          00000FB9
PSTR2CON                          00000F63
PSTR3CON                          00000F5A
MPASM 5.77                 THE_REAL_DEAL.ASM   12-13-2019  1:09:44         PAGE 72


SYMBOL TABLE
  LABEL                             VALUE 

PSTRCON                           00000FB9
PVCFG0                            00000002
PVCFG1                            00000003
PWM1CON                           00000FB7
PWM2CON                           00000F65
PWM3CON                           00000F5C
PWMCON                            00000FB7
R                                 00000002
RA0                               00000000
RA1                               00000001
RA2                               00000002
RA3                               00000003
RA4                               00000004
RA5                               00000005
RA6                               00000006
RA7                               00000007
RB0                               00000000
RB1                               00000001
RB2                               00000002
RB3                               00000003
RB4                               00000004
RB5                               00000005
RB6                               00000006
RB7                               00000007
RBIE                              00000003
RBIF                              00000000
RBIP                              00000000
RBPU                              00000007
RC0                               00000000
RC1                               00000001
RC1IE                             00000005
RC1IF                             00000005
RC1IP                             00000005
RC1REG                            00000FAE
RC1STA                            00000FAB
RC2                               00000002
RC2IE                             00000005
RC2IF                             00000005
RC2IP                             00000005
RC2REG                            00000F74
RC2STA                            00000F71
RC3                               00000003
RC4                               00000004
RC5                               00000005
RC6                               00000006
RC7                               00000007
RCEN                              00000003
RCIDL                             00000006
RCIE                              00000005
RCIF                              00000005
RCIP                              00000005
RCON                              00000FD0
RCREG                             00000FAE
MPASM 5.77                 THE_REAL_DEAL.ASM   12-13-2019  1:09:44         PAGE 73


SYMBOL TABLE
  LABEL                             VALUE 

RCREG1                            00000FAE
RCREG2                            00000F74
RCSTA                             00000FAB
RCSTA1                            00000FAB
RCSTA2                            00000F71
RD                                00000000
RD0                               00000000
RD1                               00000001
RD16                              00000001
RD2                               00000002
RD3                               00000003
RD4                               00000004
RD5                               00000005
RD6                               00000006
RD7                               00000007
RE0                               00000000
RE1                               00000001
RE2                               00000002
RE3                               00000003
REG1                              00000037
REG2                              00000038
REG3                              00000039
REG4                              0000003A
REG5                              00000047
REG6                              00000048
REG7                              00000049
REG8                              0000004A
RESET_CNT1                        00000E52
RESET_CNT2                        00000EA2
RESET_CNT3                        00000EE4
RESET_CNT4                        00000F26
RI                                00000004
RSEN                              00000001
RX                                00000007
RX1                               00000007
RX2                               00000007
RX9                               00000006
RX91                              00000006
RX92                              00000006
RX9D                              00000000
RX9D1                             00000000
RX9D2                             00000000
R_NOT_W                           00000002
R_W                               00000002
S                                 00000003
SBCDE                             00000002
SBOREN                            00000006
SCIE                              00000005
SCK                               00000003
SCK1                              00000003
SCK2                              00000000
SCKP                              00000004
SCL                               00000003
MPASM 5.77                 THE_REAL_DEAL.ASM   12-13-2019  1:09:44         PAGE 74


SYMBOL TABLE
  LABEL                             VALUE 

SCL1                              00000003
SCL2                              00000000
SCS0                              00000000
SCS1                              00000001
SDA                               00000004
SDA1                              00000004
SDA2                              00000001
SDAHT                             00000003
SDI                               00000004
SDI1                              00000004
SDI2                              00000001
SDO                               00000005
SDO1                              00000005
SDO2                              00000004
SEN                               00000000
SENDB                             00000003
SENDB1                            00000003
SENDB2                            00000003
SLRA                              00000000
SLRB                              00000001
SLRC                              00000002
SLRCON                            00000F60
SLRD                              00000003
SLRE                              00000004
SMP                               00000007
SOSCGO                            00000003
SOSCRUN                           00000006
SP0                               00000000
SP1                               00000001
SP1BRG                            00000FAF
SP1BRGH                           00000FB0
SP2                               00000002
SP2BRG                            00000F75
SP2BRGH                           00000F76
SP3                               00000003
SP4                               00000004
SPBRG                             00000FAF
SPBRG1                            00000FAF
SPBRG2                            00000F75
SPBRGH                            00000FB0
SPBRGH1                           00000FB0
SPBRGH2                           00000F76
SPEN                              00000007
SPEN1                             00000007
SPEN2                             00000007
SRCLK0                            00000004
SRCLK1                            00000005
SRCLK2                            00000006
SRCON0                            00000F47
SRCON1                            00000F46
SREN                              00000005
SREN1                             00000005
SREN2                             00000005
MPASM 5.77                 THE_REAL_DEAL.ASM   12-13-2019  1:09:44         PAGE 75


SYMBOL TABLE
  LABEL                             VALUE 

SRI                               00000000
SRLEN                             00000007
SRNQ                              00000005
SRNQEN                            00000002
SRPR                              00000000
SRPS                              00000001
SRQ                               00000004
SRQEN                             00000003
SRRC1E                            00000000
SRRC2E                            00000001
SRRCKE                            00000002
SRRPE                             00000003
SRSC1E                            00000004
SRSC2E                            00000005
SRSCKE                            00000006
SRSPE                             00000007
SS                                00000005
SS1                               00000005
SS2                               00000003
SSP1ADD                           00000FC8
SSP1BUF                           00000FC9
SSP1CON1                          00000FC6
SSP1CON2                          00000FC5
SSP1CON3                          00000FCB
SSP1IE                            00000003
SSP1IF                            00000003
SSP1IP                            00000003
SSP1MSK                           00000FCA
SSP1STAT                          00000FC7
SSP2ADD                           00000F6E
SSP2BUF                           00000F6F
SSP2CON1                          00000F6C
SSP2CON2                          00000F6B
SSP2CON3                          00000F69
SSP2IE                            00000007
SSP2IF                            00000007
SSP2IP                            00000007
SSP2MSK                           00000F6A
SSP2STAT                          00000F6D
SSPADD                            00000FC8
SSPBUF                            00000FC9
SSPCON1                           00000FC6
SSPCON2                           00000FC5
SSPCON3                           00000FCB
SSPEN                             00000005
SSPIE                             00000003
SSPIF                             00000003
SSPIP                             00000003
SSPM0                             00000000
SSPM1                             00000001
SSPM2                             00000002
SSPM3                             00000003
SSPMSK                            00000FCA
MPASM 5.77                 THE_REAL_DEAL.ASM   12-13-2019  1:09:44         PAGE 76


SYMBOL TABLE
  LABEL                             VALUE 

SSPOV                             00000006
SSPSTAT                           00000FC7
STATUS                            00000FD8
STKFUL                            00000007
STKOVF                            00000007
STKPTR                            00000FFC
STKPTR0                           00000000
STKPTR1                           00000001
STKPTR2                           00000002
STKPTR3                           00000003
STKPTR4                           00000004
STKUNF                            00000006
STR1A                             00000000
STR1B                             00000001
STR1C                             00000002
STR1D                             00000003
STR1SYNC                          00000004
STR2A                             00000000
STR2B                             00000001
STR2C                             00000002
STR2D                             00000003
STR2SYNC                          00000004
STR3A                             00000000
STR3B                             00000001
STR3C                             00000002
STR3D                             00000003
STR3SYNC                          00000004
SW2_PRESS1                        00000E7C
SW2_RELEASE1                      00000E82
SW2_RELEASE2                      00000EC4
SW2_RELEASE3                      00000F06
SW2_RELEASE4                      00000F48
SW3_RELEASE1                      00000E90
SW3_RELEASE2                      00000ED2
SW3_RELEASE3                      00000F14
SW3_RELEASE4                      00000F56
SWDTE                             00000000
SWDTEN                            00000000
SYNC                              00000004
SYNC1                             00000004
SYNC2                             00000004
Score_Delay                       00001314
Select_Digit1                     00000E5A
Select_Digit2                     00000EAA
Select_Digit3                     00000EEC
Select_Digit4                     00000F2E
ShowCode                          0000004C
T08BIT                            00000006
T0CKI                             00000004
T0CON                             00000FD5
T0CS                              00000005
T0IE                              00000005
T0IF                              00000002
MPASM 5.77                 THE_REAL_DEAL.ASM   12-13-2019  1:09:44         PAGE 77


SYMBOL TABLE
  LABEL                             VALUE 

T0PS0                             00000000
T0PS1                             00000001
T0PS2                             00000002
T0SE                              00000004
T1CKI                             00000000
T1CKPS0                           00000004
T1CKPS1                           00000005
T1CON                             00000FCD
T1G                               00000005
T1GCON                            00000FCC
T1GGO                             00000003
T1GGO_NOT_DONE                    00000003
T1GPOL                            00000006
T1GSPM                            00000004
T1GSS0                            00000000
T1GSS1                            00000001
T1GTM                             00000005
T1GVAL                            00000002
T1G_DONE                          00000003
T1OSCEN                           00000003
T1OSI                             00000001
T1OSO                             00000000
T1RD16                            00000001
T1SOSCEN                          00000003
T1SYNC                            00000002
T2CKPS0                           00000000
T2CKPS1                           00000001
T2CON                             00000FBA
T2OUTPS0                          00000003
T2OUTPS1                          00000004
T2OUTPS2                          00000005
T2OUTPS3                          00000006
T3CKI_PORTB                       00000005
T3CKI_PORTC                       00000000
T3CKPS0                           00000004
T3CKPS1                           00000005
T3CON                             00000FB1
T3G                               00000000
T3GCON                            00000FB4
T3GGO                             00000003
T3GGO_NOT_DONE                    00000003
T3GPOL                            00000006
T3GSPM                            00000004
T3GSS0                            00000000
T3GSS1                            00000001
T3GTM                             00000005
T3GVAL                            00000002
T3G_DONE                          00000003
T3OSCEN                           00000003
T3RD16                            00000001
T3SOSCEN                          00000003
T4CKPS0                           00000000
T4CKPS1                           00000001
MPASM 5.77                 THE_REAL_DEAL.ASM   12-13-2019  1:09:44         PAGE 78


SYMBOL TABLE
  LABEL                             VALUE 

T4CON                             00000F51
T4OUTPS0                          00000003
T4OUTPS1                          00000004
T4OUTPS2                          00000005
T4OUTPS3                          00000006
T5CKI                             00000002
T5CKPS0                           00000004
T5CKPS1                           00000005
T5CON                             00000F4E
T5G                               00000004
T5GCON                            00000F4D
T5GGO                             00000003
T5GGO_NOT_DONE                    00000003
T5GPOL                            00000006
T5GSPM                            00000004
T5GSS0                            00000000
T5GSS1                            00000001
T5GTM                             00000005
T5GVAL                            00000002
T5G_DONE                          00000003
T5RD16                            00000001
T5SOSCEN                          00000003
T5SYNC                            00000002
T6CKPS0                           00000000
T6CKPS1                           00000001
T6CON                             00000F4A
T6OUTPS0                          00000003
T6OUTPS1                          00000004
T6OUTPS2                          00000005
T6OUTPS3                          00000006
TABLAT                            00000FF5
TBLPTR                            00000FF6
TBLPTRH                           00000FF7
TBLPTRL                           00000FF6
TBLPTRU                           00000FF8
TEMP                              00001368
TGEN                              00000004
TMR0                              00000FD6
TMR0H                             00000FD7
TMR0IE                            00000005
TMR0IF                            00000002
TMR0IP                            00000002
TMR0L                             00000FD6
TMR0ON                            00000007
TMR1                              00000FCE
TMR1CS0                           00000006
TMR1CS1                           00000007
TMR1GE                            00000007
TMR1GIE                           00000000
TMR1GIF                           00000000
TMR1GIP                           00000000
TMR1H                             00000FCF
TMR1IE                            00000000
MPASM 5.77                 THE_REAL_DEAL.ASM   12-13-2019  1:09:44         PAGE 79


SYMBOL TABLE
  LABEL                             VALUE 

TMR1IF                            00000000
TMR1IP                            00000000
TMR1L                             00000FCE
TMR1MD                            00000000
TMR1ON                            00000000
TMR2                              00000FBC
TMR2IE                            00000001
TMR2IF                            00000001
TMR2IP                            00000001
TMR2MD                            00000001
TMR2ON                            00000002
TMR3                              00000FB2
TMR3CS0                           00000006
TMR3CS1                           00000007
TMR3GE                            00000007
TMR3GIE                           00000001
TMR3GIF                           00000001
TMR3GIP                           00000001
TMR3H                             00000FB3
TMR3IE                            00000001
TMR3IF                            00000001
TMR3IP                            00000001
TMR3L                             00000FB2
TMR3MD                            00000002
TMR3ON                            00000000
TMR4                              00000F53
TMR4IE                            00000000
TMR4IF                            00000000
TMR4IP                            00000000
TMR4MD                            00000003
TMR4ON                            00000002
TMR5                              00000F4F
TMR5CS0                           00000006
TMR5CS1                           00000007
TMR5GE                            00000007
TMR5GIE                           00000002
TMR5GIF                           00000002
TMR5GIP                           00000002
TMR5H                             00000F50
TMR5IE                            00000001
TMR5IF                            00000001
TMR5IP                            00000001
TMR5L                             00000F4F
TMR5MD                            00000004
TMR5ON                            00000000
TMR6                              00000F4C
TMR6IE                            00000002
TMR6IF                            00000002
TMR6IP                            00000002
TMR6MD                            00000005
TMR6ON                            00000002
TO                                00000003
TOS                               00000FFD
MPASM 5.77                 THE_REAL_DEAL.ASM   12-13-2019  1:09:44         PAGE 80


SYMBOL TABLE
  LABEL                             VALUE 

TOSH                              00000FFE
TOSL                              00000FFD
TOSU                              00000FFF
TRIGSEL                           00000007
TRISA                             00000F92
TRISA0                            00000000
TRISA1                            00000001
TRISA2                            00000002
TRISA3                            00000003
TRISA4                            00000004
TRISA5                            00000005
TRISA6                            00000006
TRISA7                            00000007
TRISB                             00000F93
TRISB0                            00000000
TRISB1                            00000001
TRISB2                            00000002
TRISB3                            00000003
TRISB4                            00000004
TRISB5                            00000005
TRISB6                            00000006
TRISB7                            00000007
TRISC                             00000F94
TRISC0                            00000000
TRISC1                            00000001
TRISC2                            00000002
TRISC3                            00000003
TRISC4                            00000004
TRISC5                            00000005
TRISC6                            00000006
TRISC7                            00000007
TRISD                             00000F95
TRISD0                            00000000
TRISD1                            00000001
TRISD2                            00000002
TRISD3                            00000003
TRISD4                            00000004
TRISD5                            00000005
TRISD6                            00000006
TRISD7                            00000007
TRISE                             00000F96
TRISE0                            00000000
TRISE1                            00000001
TRISE2                            00000002
TRMT                              00000001
TRMT1                             00000001
TRMT2                             00000001
TUN0                              00000000
TUN1                              00000001
TUN2                              00000002
TUN3                              00000003
TUN4                              00000004
TUN5                              00000005
MPASM 5.77                 THE_REAL_DEAL.ASM   12-13-2019  1:09:44         PAGE 81


SYMBOL TABLE
  LABEL                             VALUE 

TX                                00000006
TX1                               00000006
TX1IE                             00000004
TX1IF                             00000004
TX1IP                             00000004
TX1REG                            00000FAD
TX1STA                            00000FAC
TX2                               00000006
TX2IE                             00000004
TX2IF                             00000004
TX2IP                             00000004
TX2REG                            00000F73
TX2STA                            00000F72
TX9                               00000006
TX91                              00000006
TX92                              00000006
TX9D                              00000000
TX9D1                             00000000
TX9D2                             00000000
TXEN                              00000005
TXEN1                             00000005
TXEN2                             00000005
TXIE                              00000004
TXIF                              00000004
TXIP                              00000004
TXREG                             00000FAD
TXREG1                            00000FAD
TXREG2                            00000F73
TXSTA                             00000FAC
TXSTA1                            00000FAC
TXSTA2                            00000F72
Twiddle                           00001598
UA                                00000001
UART1MD                           00000006
UART2MD                           00000007
VDIRMAG                           00000007
VPP                               00000003
VREFCON0                          00000F42
VREFCON1                          00000F41
VREFCON2                          00000F40
VREFM                             00000002
VREFN                             00000002
VREFP                             00000003
W                                 00000000
WCOL                              00000007
WDTCON                            00000FD1
WLoo                              00000040
WLoo1                             000002A8
WLoo10                            00000CFC
WLoo11                            0000131C
WLoo2                             000003CC
WLoo3                             000004F0
WLoo4                             00000614
MPASM 5.77                 THE_REAL_DEAL.ASM   12-13-2019  1:09:44         PAGE 82


SYMBOL TABLE
  LABEL                             VALUE 

WLoo5                             00000748
WLoo6                             0000086C
WLoo7                             00000990
WLoo8                             00000AB4
WLoo9                             00000BD8
WPUB                              00000F61
WPUB0                             00000000
WPUB1                             00000001
WPUB2                             00000002
WPUB3                             00000003
WPUB4                             00000004
WPUB5                             00000005
WPUB6                             00000006
WPUB7                             00000007
WPUE3                             00000007
WR                                00000001
WREG                              00000FE8
WREN                              00000002
WRERR                             00000003
WT_CNT                            00000FF2
WT_RELEASE1                       0000018A
WUE                               00000001
Z                                 00000002
_.org_1_018C                      0000018C
_BOREN_NOSLP_2L                   000000FD
_BOREN_OFF_2L                     000000F9
_BOREN_ON_2L                      000000FB
_BOREN_SBORDIS_2L                 000000FF
_BORV_190_2L                      000000FF
_BORV_220_2L                      000000F7
_BORV_250_2L                      000000EF
_BORV_285_2L                      000000E7
_CCP2MX_PORTB3_3H                 000000FE
_CCP2MX_PORTC1_3H                 000000FF
_CCP3MX_PORTB5_3H                 000000FF
_CCP3MX_PORTE0_3H                 000000FB
_CONFIG1H                         00300001
_CONFIG2H                         00300003
_CONFIG2L                         00300002
_CONFIG3H                         00300005
_CONFIG4L                         00300006
_CONFIG5H                         00300009
_CONFIG5L                         00300008
_CONFIG6H                         0030000B
_CONFIG6L                         0030000A
_CONFIG7H                         0030000D
_CONFIG7L                         0030000C
_CP0_OFF_5L                       000000FF
_CP0_ON_5L                        000000FE
_CP1_OFF_5L                       000000FF
_CP1_ON_5L                        000000FD
_CP2_OFF_5L                       000000FF
_CP2_ON_5L                        000000FB
MPASM 5.77                 THE_REAL_DEAL.ASM   12-13-2019  1:09:44         PAGE 83


SYMBOL TABLE
  LABEL                             VALUE 

_CP3_OFF_5L                       000000FF
_CP3_ON_5L                        000000F7
_CPB_OFF_5H                       000000FF
_CPB_ON_5H                        000000BF
_CPD_OFF_5H                       000000FF
_CPD_ON_5H                        0000007F
_DEBUG_OFF_4L                     000000FF
_DEBUG_ON_4L                      0000007F
_DEVID1                           003FFFFE
_DEVID2                           003FFFFF
_EBTR0_OFF_7L                     000000FF
_EBTR0_ON_7L                      000000FE
_EBTR1_OFF_7L                     000000FF
_EBTR1_ON_7L                      000000FD
_EBTR2_OFF_7L                     000000FF
_EBTR2_ON_7L                      000000FB
_EBTR3_OFF_7L                     000000FF
_EBTR3_ON_7L                      000000F7
_EBTRB_OFF_7H                     000000FF
_EBTRB_ON_7H                      000000BF
_FCMEN_OFF_1H                     000000BF
_FCMEN_ON_1H                      000000FF
_FOSC_ECHPIO6_1H                  000000F5
_FOSC_ECHP_1H                     000000F4
_FOSC_ECLPIO6_1H                  000000FD
_FOSC_ECLP_1H                     000000FC
_FOSC_ECMPIO6_1H                  000000FB
_FOSC_ECMP_1H                     000000FA
_FOSC_HSHP_1H                     000000F2
_FOSC_HSMP_1H                     000000F3
_FOSC_INTIO67_1H                  000000F8
_FOSC_INTIO7_1H                   000000F9
_FOSC_LP_1H                       000000F0
_FOSC_RCIO6_1H                    000000F7
_FOSC_RC_1H                       000000F6
_FOSC_XT_1H                       000000F1
_HFOFST_OFF_3H                    000000F7
_HFOFST_ON_3H                     000000FF
_IDLOC0                           00200000
_IDLOC1                           00200001
_IDLOC2                           00200002
_IDLOC3                           00200003
_IDLOC4                           00200004
_IDLOC5                           00200005
_IDLOC6                           00200006
_IDLOC7                           00200007
_IESO_OFF_1H                      0000007F
_IESO_ON_1H                       000000FF
_LVP_OFF_4L                       000000FB
_LVP_ON_4L                        000000FF
_MCLRE_EXTMCLR_3H                 000000FF
_MCLRE_INTMCLR_3H                 0000007F
_P2BMX_PORTC0_3H                  000000DF
MPASM 5.77                 THE_REAL_DEAL.ASM   12-13-2019  1:09:44         PAGE 84


SYMBOL TABLE
  LABEL                             VALUE 

_P2BMX_PORTD2_3H                  000000FF
_PBADEN_OFF_3H                    000000FD
_PBADEN_ON_3H                     000000FF
_PLLCFG_OFF_1H                    000000EF
_PLLCFG_ON_1H                     000000FF
_PRICLKEN_OFF_1H                  000000DF
_PRICLKEN_ON_1H                   000000FF
_PWRTEN_OFF_2L                    000000FF
_PWRTEN_ON_2L                     000000FE
_STVREN_OFF_4L                    000000FE
_STVREN_ON_4L                     000000FF
_T3CMX_PORTB5_3H                  000000EF
_T3CMX_PORTC0_3H                  000000FF
_WDTEN_NOSLP_2H                   000000FD
_WDTEN_OFF_2H                     000000FC
_WDTEN_ON_2H                      000000FF
_WDTEN_SWON_2H                    000000FE
_WDTPS_1024_2H                    000000EB
_WDTPS_128_2H                     000000DF
_WDTPS_16384_2H                   000000FB
_WDTPS_16_2H                      000000D3
_WDTPS_1_2H                       000000C3
_WDTPS_2048_2H                    000000EF
_WDTPS_256_2H                     000000E3
_WDTPS_2_2H                       000000C7
_WDTPS_32768_2H                   000000FF
_WDTPS_32_2H                      000000D7
_WDTPS_4096_2H                    000000F3
_WDTPS_4_2H                       000000CB
_WDTPS_512_2H                     000000E7
_WDTPS_64_2H                      000000DB
_WDTPS_8192_2H                    000000F7
_WDTPS_8_2H                       000000CF
_WRT0_OFF_6L                      000000FF
_WRT0_ON_6L                       000000FE
_WRT1_OFF_6L                      000000FF
_WRT1_ON_6L                       000000FD
_WRT2_OFF_6L                      000000FF
_WRT2_ON_6L                       000000FB
_WRT3_OFF_6L                      000000FF
_WRT3_ON_6L                       000000F7
_WRTB_OFF_6H                      000000FF
_WRTB_ON_6H                       000000BF
_WRTC_OFF_6H                      000000FF
_WRTC_ON_6H                       000000DF
_WRTD_OFF_6H                      000000FF
_WRTD_ON_6H                       0000007F
_XINST_OFF_4L                     000000BF
_XINST_ON_4L                      000000FF
__18F46K22                        00000001
cmd_byte                          00000009
d_write                           00001636
delay                             00000004
MPASM 5.77                 THE_REAL_DEAL.ASM   12-13-2019  1:09:44         PAGE 85


SYMBOL TABLE
  LABEL                             VALUE 

i_write                           0000162E
lil1                              000015B8
lil2                              000015CE
ptr_count                         00000008
ptr_pos                           00000007
temp_rd                           00000006
temp_wr                           00000005

Errors   :     0
Warnings :    47 reported,     0 suppressed
Messages :     0 reported,     0 suppressed

